(lp1
F1.9156898289907076e-13
aF1.4183099139586375e-14
aF4.2937875477377929e-14
aF1.9811929874435918e-13
aF2.055300374337321e-13
aF2.6229018956769323e-13
aF4.9654724776360126e-14
aF4.6559978095217502e-13
aF1.659783421814609e-14
aF4.4933501364141648e-13
aF3.7359004778636518e-14
aF2.0561330416057899e-13
aF5.5183635438993406e-13
aF3.8102854205135372e-13
aF4.2665870836344766e-13
aF1.2145839889399213e-13
aF1.726951914804431e-13
aF2.0528023725319144e-13
aF2.8688162956314045e-13
aF6.0451643690839774e-14
aF6.376010830422274e-13
aF1.0433875985427221e-12
aF1.0625944568687381e-12
aF3.1807889655510735e-13
aF6.1950444774083735e-13
aF8.7851947938588677e-13
aF6.1872729162359974e-13
aF8.7985174701543656e-13
aF5.3235194030776297e-13
aF6.0285110237146e-13
aF1.1424194923392861e-12
aF1.9231283232556962e-12
aF1.1035616864774056e-12
aF2.8237412408316231e-12
aF1.248112724283601e-12
aF2.8748114999643803e-12
aF2.1209700662438991e-12
aF1.1615153283628388e-12
aF2.8395064077813004e-12
aF2.3354651546014793e-12
aF2.3767654511175351e-12
aF1.2940759575030825e-12
aF8.4687812318406941e-13
aF2.3536728122053383e-12
aF1.3851142455223453e-12
aF3.2045477382780551e-12
aF8.8595797365087492e-13
aF7.5894845963375782e-13
aF4.2774672692758031e-12
aF2.2466473126314668e-12
aF9.7113428410011693e-12
aF5.645262035613996e-12
aF7.9589668189328222e-12
aF1.5274004283583054e-11
aF1.5996093338799385e-12
aF7.9465323210570205e-12
aF1.3427481349026493e-11
aF7.9296569310827181e-12
aF7.0254912998279906e-12
aF2.2968293933445239e-12
aF8.8942186948770541e-12
aF2.7309710048939451e-11
aF9.2725827016698244e-13
aF9.1215923703202861e-12
aF4.5741188614556449e-12
aF3.2720492981752876e-12
aF8.2014395275109564e-12
aF8.7929663550312915e-12
aF1.1812772982011666e-11
aF4.7393200475198682e-12
aF3.8266279034360196e-11
aF9.7735153303801781e-12
aF3.0837554731988348e-12
aF2.2783552822147612e-11
aF2.1966428676023497e-11
aF3.3072211635953863e-11
aF3.5598191061581019e-11
aF5.8975047068088315e-12
aF3.3885783068399178e-11
aF3.0269120543380268e-12
aF9.6491703516221605e-11
aF3.2507330161024584e-11
aF4.7393200475198682e-12
aF1.0011547146859812e-11
aF6.2854610405338462e-11
aF7.6632034051726805e-11
aF9.6136432148341555e-12
aF7.4720674092532136e-11
aF1.2955325701113907e-10
aF1.4068746168050048e-12
aF8.4583007264882326e-11
aF6.4972027757903561e-11
aF1.414690586898376e-10
aF1.078035438695224e-10
aF7.6695982897945214e-11
aF1.1932854704355123e-10
aF2.0725110516650602e-10
aF1.9279866592114558e-10
aF1.1041834113711957e-11
aF2.0961010704922955e-11
aF2.148681232938543e-11
aF1.0089706847793423e-11
aF7.887024366939759e-11
aF1.3309886526258197e-10
aF2.8234126148163341e-10
aF4.9880100050359136e-11
aF3.1965896596375387e-10
aF1.3480416782840621e-10
aF2.6929569685307797e-10
aF3.6436631489777938e-11
aF3.6408209780347534e-10
aF6.0299498727545142e-10
aF3.4941649573743981e-10
aF9.822542779147625e-10
aF2.8995827960898168e-10
aF7.474909580196254e-11
aF4.7083403842407279e-10
aF5.4905058277654462e-10
aF6.7535665948526002e-10
aF3.6220626498106867e-10
aF1.2831833373638801e-09
aF1.3599219528259709e-09
aF5.9344529290683568e-10
aF4.8953552322927862e-10
aF2.2140511646284722e-09
aF6.4676441979827359e-10
aF1.808757588150911e-10
aF4.8771653382573277e-10
aF1.52306256495649e-09
aF4.872617864748463e-10
aF1.1289102985756472e-09
aF3.3605829230509698e-10
aF1.305124897044152e-10
aF2.012484401348047e-09
aF3.086370270466432e-09
aF3.0581759347114712e-10
aF8.0740392149891704e-10
aF7.7761797001585364e-11
aF2.7830537874251604e-10
aF2.6143425202462822e-09
aF3.333298081997782e-10
aF4.7384673962454264e-10
aF2.304204826941717e-09
aF5.5388227337973977e-10
aF1.261014404008165e-09
aF5.4092197387944907e-09
aF6.0481397667899728e-10
aF2.3610482458025217e-09
aF2.0786501409020308e-09
aF4.3160071072702072e-09
aF6.9394445745274425e-09
aF4.4328771764683573e-09
aF4.3655745685778182e-10
aF5.1668394007720053e-09
aF3.9390215533786581e-09
aF1.8280843505635858e-09
aF6.5947460825622789e-09
aF5.5697455536574125e-09
aF8.1827238318510354e-09
aF1.1492375051602721e-08
aF1.5426849131472409e-08
aF8.3218765212222934e-09
aF2.3883330868557572e-08
aF2.1582309273125797e-08
aF4.6875356930460924e-09
aF5.6206772569566965e-09
aF2.3228494683280587e-09
aF4.8385118134319782e-10
aF5.9990270528942347e-09
aF1.7278580344498931e-08
aF1.6672856873009741e-08
aF6.15473254583776e-08
aF2.9212969820963396e-09
aF8.7202352005988359e-09
aF6.1991158872859729e-09
aF2.1052983356639743e-08
aF4.9232767196372151e-08
aF9.1822585090994835e-09
aF6.653863238170743e-09
aF9.5897121354937553e-09
aF7.1755493991076946e-08
aF6.1067112255841494e-08
aF3.298191586509347e-08
aF9.3226844910539859e-08
aF4.0636223275214434e-08
aF3.8868165574974637e-08
aF7.2672264650464058e-08
aF3.6779965739697218e-08
aF3.3760443329811096e-09
aF9.087671060115099e-09
aF4.1778548622375955e-08
aF3.3323885872960091e-09
aF4.8021320253644492e-09
aF2.6630004867911405e-09
aF1.9509752746671438e-07
aF6.3097104430198669e-08
aF1.5986734069883823e-07
aF1.3031240087349799e-07
aF3.6729034036397934e-08
aF6.9558154826288021e-09
aF5.7043507695198059e-09
aF2.2526364773511887e-08
aF3.0818046070635319e-07
aF1.4289980754364669e-08
aF1.0119401849806309e-07
aF9.0309185907244682e-08
aF1.5585101209580898e-07
aF1.8847640603780746e-07
aF4.1327439248561859e-08
aF2.930755726993084e-08
aF3.7037534639239311e-07
aF5.4249540082373926e-08
aF5.3661642596125603e-07
aF1.6606645658612251e-07
aF3.9866426965184942e-07
aF1.493026502430439e-07
aF2.9953662306070328e-07
aF1.4610122889280319e-08
aF4.9360096565642664e-08
aF1.6880221664905548e-08
aF6.8102963268756866e-07
aF1.8218997865915298e-06
aF8.9174136519432068e-08
aF6.2608160078525543e-07
aF7.9046003520488739e-08
aF6.0198362916707993e-07
aF5.5972486734390259e-07
aF3.1571835323873643e-07
aF8.0221798270940781e-07
aF4.9476511776447296e-07
aF4.5471824705600739e-07
aF2.2631138563156128e-07
aF2.3536849766969681e-06
aF2.2072345018386841e-06
aF3.7276186048984528e-07
aF8.9989043772220612e-07
aF1.5364494174718857e-06
aF7.8277662396430969e-07
aF2.519926056265831e-06
aF3.5250559520250135e-06
aF1.276843249797821e-06
aF2.5103799998760223e-06
aF1.5785917728550203e-07
aF4.509463906288147e-06
aF2.2351741861825758e-06
aF1.2074597179889679e-06
aF3.273598894182328e-07
aF3.5939738154411316e-06
aF3.4375116229057312e-06
aF2.5215558707714081e-06
aF9.7323209058419735e-07
aF4.4796615839004517e-06
aF6.3106417655944824e-06
aF2.4149194359779358e-06
aF5.243346095085144e-06
aF4.7767534852027893e-06
aF6.9830566644668579e-06
aF9.318813681602478e-06
aF4.3977051973342896e-06
aF5.5981799960136414e-06
aF2.0531937593659677e-05
aF2.3711472749710083e-06
aF2.1401792764663696e-06
aF1.3345852551083226e-05
aF4.7720968803233177e-06
aF5.159527063369751e-07
aF2.2284686679086008e-05
aF1.1021271347999573e-05
aF1.5862286090906341e-05
aF1.8563121557291229e-05
aF1.8924475625681225e-05
aF7.066875696182251e-06
aF1.1324882507324219e-06
aF1.6257166862487793e-05
aF4.7359615564346313e-05
aF6.7465007305145264e-06
aF2.0340085029602051e-06
aF1.8026679811100621e-05
aF1.7583370208740234e-05
aF2.6442110538482666e-05
aF9.7811222076416016e-05
aF5.1721930503845215e-05
aF1.9893050193786621e-06
aF1.6890466213226318e-05
aF5.5134296417236328e-05
aF6.7077577114105225e-05
aF7.5466934504220262e-05
aF6.8798663050984032e-05
aF5.5879354476928711e-06
aF6.2696635723114014e-05
aF4.0531158447265625e-06
aF6.8426132202148438e-05
aF8.2075595855712891e-05
aF7.197260856628418e-06
aF1.0788447980303317e-05
aF7.553398609161377e-05
aF3.9726495742797852e-05
aF3.7372112274169922e-05
aF7.7307224273681641e-05
aF1.4424324035644531e-05
aF3.7550962588284165e-06
aF0.00024083256721496582
aF0.00022828578960343293
aF0.00035724044573726133
aF0.00032564999150963558
aF0.00011035799980163574
aF0.00046306848526000977
aF0.00012996792793273926
aF0.00014969706546708039
aF0.00035086274147033691
aF4.5955182031320874e-05
aF0.00029343378264456987
aF0.00040894746780395508
aF0.00089514267165213823
aF0.00033581256866455078
aF0.00094968080520629883
aF0.00050324201583862305
aF0.00053673982620239258
aF0.00017970800399780273
aF2.9027462005615234e-05
aF0.00028157234191894531
aF0.00059104012325406075
aF0.0001506805419921875
aF0.00055193901062011719
aF0.00058186054229736328
aF0.0013486151583492756
aF0.00053226994350552559
aF0.0016480684280395508
aF8.5473060607910156e-05
aF0.00091159343719482422
aF0.00029230118525447324
aF0.0022649765014648438
aF0.0014405250549316406
aF0.0029799938201904297
aF0.00024271011352539062
aF0.00054764748347224668
aF7.2479248046875e-05
aF4.4584274291992188e-05
aF5.1260227337479591e-05
aF0.0019996166229248047
aF0.0022587776184082031
aF0.0044403076171875
aF0.0042209699749946594
aF0.00068330764770507812
aF0.0025825509801506996
aF0.0011186599731445312
aF0.000732421875
aF0.0057339668273925781
aF0.0017128065228462219
aF0.0020556529052555561
aF0.0086774863302707672
aF0.0051259994506835938
aF0.00269317626953125
aF0.011954307556152344
aF0.00027370452880859375
aF0.00023937236983329058
aF0.011269569396972656
aF0.000530242919921875
aF0.0029859542846679688
aF0.0017633438110351562
aF0.013677656650543213
aF0.00311279296875
aF0.019838333129882812
aF0.021535873413085938
aF0.0042953789234161377
aF0.00079536810517311096
aF0.033548355102539062
aF0.002483367919921875
aF0.010723114013671875
aF0.0121917724609375
aF0.000881195068359375
aF0.024375917389988899
aF0.035480499267578125
aF0.018489837646484375
aF0.026157379150390625
aF0.034290790557861328
aF0.021450042724609375
aF0.0024833697825670242
aF0.010730743408203125
aF0.021392822265625
aF0.07204437255859375
aF0.01764678955078125
aF0.026918411254882812
aF0.0070648193359375
aF0.1030426025390625
aF0.046783447265625
aF0.0482635498046875
aF0.010299690067768097
aF0.044975288212299347
aF0.080169677734375
aF0.018737822771072388
aF0.1131439208984375
aF0.0663604736328125
aF0.1296539306640625
aF0.0478363037109375
aF0.0225372314453125
aF0.066650390625
aF0.008819580078125
aF0.0200347900390625
aF0.042861968278884888
aF0.025360107421875
aF0.0953369140625
aF0.282623291015625
aF0.02667236328125
aF0.1575927734375
aF0.040863052010536194
aF0.146881103515625
aF0.075286865234375
aF0.138580322265625
aF0.37744140625
aF0.4189453125
aF0.79400634765625
aF0.54974365234375
aF0.043335437774658203
aF0.3040771484375
aF0.0338134765625
aF0.67022705078125
aF0.35650634765625
aF0.3128662109375
aF0.27197271585464478
aF0.27783203125
aF0.6275634765625
aF0.17370796203613281
aF1.4749755859375
aF1.5311279296875
aF0.4696044921875
aF0.459716796875
aF0.07177734375
aF0.05712890625
aF0.0594482421875
aF0.111572265625
aF2.238525390625
aF0.0549468994140625
aF2.318359375
aF1.43701171875
aF0.20166778564453125
aF0.6611328125
aF0.41845703125
aF1.241241455078125
aF2.21435546875
aF0.1171875
aF0.14111328125
aF0.1279296875
aF2.25439453125
aF0.11572265625
aF2.5264892578125
aF1.3369140625
aF1.408203125
aF0.109375
aF6.63671875
aF5.0771484375
aF0.4658203125
aF0.92578125
aF5.3173828125
aF4.490234375
aF2.439453125
aF15.36328125
aF2.2509765625
aF4.7294921875
aF0.2677001953125
aF9.919921875
aF1.94189453125
aF1.4453125
aF19.611328125
aF13.470703125
aF11.73046875
aF1.525390625
aF9.34619140625
aF3.220703125
aF18.693359375
aF42.9375
aF7.56640625
aF35.1650390625
aF7.0390625
aF18.42236328125
aF29.83984375
aF23.19635009765625
aF41.12109375
aF23.38671875
aF24.83203125
aF41.40625
aF76.5859375
aF14.140625
aF1.609375
aF8.6796875
aF168.0625
aF39.734375
aF44.28125
aF55.0390625
aF34.0166015625
aF168.00390625
aF123.453125
aF11.34375
aF73.578125
aF3.22265625
aF166.71875
aF67.20703125
aF3.953125
aF83.6171875
aF12.375
aF2.84375
aF153.625
aF9.25
aF442.8125
aF48.90625
aF105.78125
aF208.875
aF265.25
aF5.5
aF169.84375
aF321.0625
aF336.375
aF572.6875
aF482.5
aF258.4375
aF633.3125
aF593.375
aF363.75
aF333.75
aF362.25
a.(lp1
F1.9156898289907076e-13
aF1.4183099139586375e-14
aF4.2937875477377929e-14
aF1.9811929874435918e-13
aF2.055300374337321e-13
aF2.6229018956769323e-13
aF4.9654724776360126e-14
aF4.6559978095217502e-13
aF1.659783421814609e-14
aF4.4933501364141648e-13
aF3.7359004778636518e-14
aF2.0561330416057899e-13
aF5.5183635438993406e-13
aF3.8102854205135372e-13
aF4.2665870836344766e-13
aF1.2145839889399213e-13
aF1.726951914804431e-13
aF2.0528023725319144e-13
aF2.8688162956314045e-13
aF6.0451643690839774e-14
aF6.376010830422274e-13
aF1.0433875985427221e-12
aF1.0625944568687381e-12
aF3.1807889655510735e-13
aF6.1950444774083735e-13
aF8.7851947938588677e-13
aF6.1872729162359974e-13
aF8.7985174701543656e-13
aF5.3235194030776297e-13
aF6.0285110237146e-13
aF1.1424194923392861e-12
aF1.9231283232556962e-12
aF1.1035616864774056e-12
aF2.8237412408316231e-12
aF1.248112724283601e-12
aF2.8748114999643803e-12
aF2.1209700662438991e-12
aF1.1615153283628388e-12
aF2.8395064077813004e-12
aF2.3354651546014793e-12
aF2.3767654511175351e-12
aF1.2940759575030825e-12
aF8.4687812318406941e-13
aF2.3536728122053383e-12
aF1.3851142455223453e-12
aF3.2045477382780551e-12
aF8.8595797365087492e-13
aF7.5894845963375782e-13
aF4.2774672692758031e-12
aF2.2466473126314668e-12
aF9.7113428410011693e-12
aF5.645262035613996e-12
aF7.9589668189328222e-12
aF1.5274004283583054e-11
aF1.5996093338799385e-12
aF7.9465323210570205e-12
aF1.3427481349026493e-11
aF7.9296569310827181e-12
aF7.0254912998279906e-12
aF2.2968293933445239e-12
aF8.8942186948770541e-12
aF2.7309710048939451e-11
aF9.2725827016698244e-13
aF9.1215923703202861e-12
aF4.5741188614556449e-12
aF3.2720492981752876e-12
aF8.2014395275109564e-12
aF8.7929663550312915e-12
aF1.1812772982011666e-11
aF4.7393200475198682e-12
aF3.8266279034360196e-11
aF9.7735153303801781e-12
aF3.0837554731988348e-12
aF2.2783552822147612e-11
aF2.1966428676023497e-11
aF3.3072211635953863e-11
aF3.5598191061581019e-11
aF5.8975047068088315e-12
aF3.3885783068399178e-11
aF3.0269120543380268e-12
aF9.6491703516221605e-11
aF3.2507330161024584e-11
aF4.7393200475198682e-12
aF1.0011547146859812e-11
aF6.2854610405338462e-11
aF7.6632034051726805e-11
aF9.6136432148341555e-12
aF7.4720674092532136e-11
aF1.2955325701113907e-10
aF1.4068746168050048e-12
aF8.4583007264882326e-11
aF6.4972027757903561e-11
aF1.414690586898376e-10
aF1.078035438695224e-10
aF7.6695982897945214e-11
aF1.1932854704355123e-10
aF2.0725110516650602e-10
aF1.9279866592114558e-10
aF1.1041834113711957e-11
aF2.0961010704922955e-11
aF2.148681232938543e-11
aF1.0089706847793423e-11
aF7.887024366939759e-11
aF1.3309886526258197e-10
aF2.8234126148163341e-10
aF4.9880100050359136e-11
aF3.1965896596375387e-10
aF1.3480416782840621e-10
aF2.6929569685307797e-10
aF3.6436631489777938e-11
aF3.6408209780347534e-10
aF6.0299498727545142e-10
aF3.4941649573743981e-10
aF9.822542779147625e-10
aF2.8995827960898168e-10
aF7.474909580196254e-11
aF4.7083403842407279e-10
aF5.4905058277654462e-10
aF6.7535665948526002e-10
aF3.6220626498106867e-10
aF1.2831833373638801e-09
aF1.3599219528259709e-09
aF5.9344529290683568e-10
aF4.8953552322927862e-10
aF2.2140511646284722e-09
aF6.4676441979827359e-10
aF1.808757588150911e-10
aF4.8771653382573277e-10
aF1.52306256495649e-09
aF4.872617864748463e-10
aF1.1289102985756472e-09
aF3.3605829230509698e-10
aF1.305124897044152e-10
aF2.012484401348047e-09
aF3.086370270466432e-09
aF3.0581759347114712e-10
aF8.0740392149891704e-10
aF7.7761797001585364e-11
aF2.7830537874251604e-10
aF2.6143425202462822e-09
aF3.333298081997782e-10
aF4.7384673962454264e-10
aF2.304204826941717e-09
aF5.5388227337973977e-10
aF1.261014404008165e-09
aF5.4092197387944907e-09
aF6.0481397667899728e-10
aF2.3610482458025217e-09
aF2.0786501409020308e-09
aF4.3160071072702072e-09
aF6.9394445745274425e-09
aF4.4328771764683573e-09
aF4.3655745685778182e-10
aF5.1668394007720053e-09
aF3.9390215533786581e-09
aF1.8280843505635858e-09
aF6.5947460825622789e-09
aF5.5697455536574125e-09
aF8.1827238318510354e-09
aF1.1492375051602721e-08
aF1.5426849131472409e-08
aF8.3218765212222934e-09
aF2.3883330868557572e-08
aF2.1582309273125797e-08
aF4.6875356930460924e-09
aF5.6206772569566965e-09
aF2.3228494683280587e-09
aF4.8385118134319782e-10
aF5.9990270528942347e-09
aF1.7278580344498931e-08
aF1.6672856873009741e-08
aF6.15473254583776e-08
aF2.9212969820963396e-09
aF8.7202352005988359e-09
aF6.1991158872859729e-09
aF2.1052983356639743e-08
aF4.9232767196372151e-08
aF9.1822585090994835e-09
aF6.653863238170743e-09
aF9.5897121354937553e-09
aF7.1755493991076946e-08
aF6.1067112255841494e-08
aF3.298191586509347e-08
aF9.3226844910539859e-08
aF4.0636223275214434e-08
aF3.8868165574974637e-08
aF7.2672264650464058e-08
aF3.6779965739697218e-08
aF3.3760443329811096e-09
aF9.087671060115099e-09
aF4.1778548622375955e-08
aF3.3323885872960091e-09
aF4.8021320253644492e-09
aF2.6630004867911405e-09
aF1.9509752746671438e-07
aF6.3097104430198669e-08
aF1.5986734069883823e-07
aF1.3031240087349799e-07
aF3.6729034036397934e-08
aF6.9558154826288021e-09
aF5.7043507695198059e-09
aF2.2526364773511887e-08
aF3.0818046070635319e-07
aF1.4289980754364669e-08
aF1.0119401849806309e-07
aF9.0309185907244682e-08
aF1.5585101209580898e-07
aF1.8847640603780746e-07
aF4.1327439248561859e-08
aF2.930755726993084e-08
aF3.7037534639239311e-07
aF5.4249540082373926e-08
aF5.3661642596125603e-07
aF1.6606645658612251e-07
aF3.9866426965184942e-07
aF1.493026502430439e-07
aF2.9953662306070328e-07
aF1.4610122889280319e-08
aF4.9360096565642664e-08
aF1.6880221664905548e-08
aF6.8102963268756866e-07
aF1.8218997865915298e-06
aF8.9174136519432068e-08
aF6.2608160078525543e-07
aF7.9046003520488739e-08
aF6.0198362916707993e-07
aF5.5972486734390259e-07
aF3.1571835323873643e-07
aF8.0221798270940781e-07
aF4.9476511776447296e-07
aF4.5471824705600739e-07
aF2.2631138563156128e-07
aF2.3536849766969681e-06
aF2.2072345018386841e-06
aF3.7276186048984528e-07
aF8.9989043772220612e-07
aF1.5364494174718857e-06
aF7.8277662396430969e-07
aF2.519926056265831e-06
aF3.5250559520250135e-06
aF1.276843249797821e-06
aF2.5103799998760223e-06
aF1.5785917728550203e-07
aF4.509463906288147e-06
aF2.2351741861825758e-06
aF1.2074597179889679e-06
aF3.273598894182328e-07
aF3.5939738154411316e-06
aF3.4375116229057312e-06
aF2.5215558707714081e-06
aF9.7323209058419735e-07
aF4.4796615839004517e-06
aF6.3106417655944824e-06
aF2.4149194359779358e-06
aF5.243346095085144e-06
aF4.7767534852027893e-06
aF6.9830566644668579e-06
aF9.318813681602478e-06
aF4.3977051973342896e-06
aF5.5981799960136414e-06
aF2.0531937593659677e-05
aF2.3711472749710083e-06
aF2.1401792764663696e-06
aF1.3345852551083226e-05
aF4.7720968803233177e-06
aF5.159527063369751e-07
aF2.2284686679086008e-05
aF1.1021271347999573e-05
aF1.5862286090906341e-05
aF1.8563121557291229e-05
aF1.8924475625681225e-05
aF7.066875696182251e-06
aF1.1324882507324219e-06
aF1.6257166862487793e-05
aF4.7359615564346313e-05
aF6.7465007305145264e-06
aF2.0340085029602051e-06
aF1.8026679811100621e-05
aF1.7583370208740234e-05
aF2.6442110538482666e-05
aF9.7811222076416016e-05
aF5.1721930503845215e-05
aF1.9893050193786621e-06
aF1.6890466213226318e-05
aF5.5134296417236328e-05
aF6.7077577114105225e-05
aF7.5466934504220262e-05
aF6.8798663050984032e-05
aF5.5879354476928711e-06
aF6.2696635723114014e-05
aF4.0531158447265625e-06
aF6.8426132202148438e-05
aF8.2075595855712891e-05
aF7.197260856628418e-06
aF1.0788447980303317e-05
aF7.553398609161377e-05
aF3.9726495742797852e-05
aF3.7372112274169922e-05
aF7.7307224273681641e-05
aF1.4424324035644531e-05
aF3.7550962588284165e-06
aF0.00024083256721496582
aF0.00022828578960343293
aF0.00035724044573726133
aF0.00032564999150963558
aF0.00011035799980163574
aF0.00046306848526000977
aF0.00012996792793273926
aF0.00014969706546708039
aF0.00035086274147033691
aF4.5955182031320874e-05
aF0.00029343378264456987
aF0.00040894746780395508
aF0.00089514267165213823
aF0.00033581256866455078
aF0.00094968080520629883
aF0.00050324201583862305
aF0.00053673982620239258
aF0.00017970800399780273
aF2.9027462005615234e-05
aF0.00028157234191894531
aF0.00059104012325406075
aF0.0001506805419921875
aF0.00055193901062011719
aF0.00058186054229736328
aF0.0013486151583492756
aF0.00053226994350552559
aF0.0016480684280395508
aF8.5473060607910156e-05
aF0.00091159343719482422
aF0.00029230118525447324
aF0.0022649765014648438
aF0.0014405250549316406
aF0.0029799938201904297
aF0.00024271011352539062
aF0.00054764748347224668
aF7.2479248046875e-05
aF4.4584274291992188e-05
aF5.1260227337479591e-05
aF0.0019996166229248047
aF0.0022587776184082031
aF0.0044403076171875
aF0.0042209699749946594
aF0.00068330764770507812
aF0.0025825509801506996
aF0.0011186599731445312
aF0.000732421875
aF0.0057339668273925781
aF0.0017128065228462219
aF0.0020556529052555561
aF0.0086774863302707672
aF0.0051259994506835938
aF0.00269317626953125
aF0.011954307556152344
aF0.00027370452880859375
aF0.00023937236983329058
aF0.011269569396972656
aF0.000530242919921875
aF0.0029859542846679688
aF0.0017633438110351562
aF0.013677656650543213
aF0.00311279296875
aF0.019838333129882812
aF0.021535873413085938
aF0.0042953789234161377
aF0.00079536810517311096
aF0.033548355102539062
aF0.002483367919921875
aF0.010723114013671875
aF0.0121917724609375
aF0.000881195068359375
aF0.024375917389988899
aF0.035480499267578125
aF0.018489837646484375
aF0.026157379150390625
aF0.034290790557861328
aF0.021450042724609375
aF0.0024833697825670242
aF0.010730743408203125
aF0.021392822265625
aF0.07204437255859375
aF0.01764678955078125
aF0.026918411254882812
aF0.0070648193359375
aF0.1030426025390625
aF0.046783447265625
aF0.0482635498046875
aF0.010299690067768097
aF0.044975288212299347
aF0.080169677734375
aF0.018737822771072388
aF0.1131439208984375
aF0.0663604736328125
aF0.1296539306640625
aF0.0478363037109375
aF0.0225372314453125
aF0.066650390625
aF0.008819580078125
aF0.0200347900390625
aF0.042861968278884888
aF0.025360107421875
aF0.0953369140625
aF0.282623291015625
aF0.02667236328125
aF0.1575927734375
aF0.040863052010536194
aF0.146881103515625
aF0.075286865234375
aF0.138580322265625
aF0.37744140625
aF0.4189453125
aF0.79400634765625
aF0.54974365234375
aF0.043335437774658203
aF0.3040771484375
aF0.0338134765625
aF0.67022705078125
aF0.35650634765625
aF0.3128662109375
aF0.27197271585464478
aF0.27783203125
aF0.6275634765625
aF0.17370796203613281
aF1.4749755859375
aF1.5311279296875
aF0.4696044921875
aF0.459716796875
aF0.07177734375
aF0.05712890625
aF0.0594482421875
aF0.111572265625
aF2.238525390625
aF0.0549468994140625
aF2.318359375
aF1.43701171875
aF0.20166778564453125
aF0.6611328125
aF0.41845703125
aF1.241241455078125
aF2.21435546875
aF0.1171875
aF0.14111328125
aF0.1279296875
aF2.25439453125
aF0.11572265625
aF2.5264892578125
aF1.3369140625
aF1.408203125
aF0.109375
aF6.63671875
aF5.0771484375
aF0.4658203125
aF0.92578125
aF5.3173828125
aF4.490234375
aF2.439453125
aF15.36328125
aF2.2509765625
aF4.7294921875
aF0.2677001953125
aF9.919921875
aF1.94189453125
aF1.4453125
aF19.611328125
aF13.470703125
aF11.73046875
aF1.525390625
aF9.34619140625
aF3.220703125
aF18.693359375
aF42.9375
aF7.56640625
aF35.1650390625
aF7.0390625
aF18.42236328125
aF29.83984375
aF23.19635009765625
aF41.12109375
aF23.38671875
aF24.83203125
aF41.40625
aF76.5859375
aF14.140625
aF1.609375
aF8.6796875
aF168.0625
aF39.734375
aF44.28125
aF55.0390625
aF34.0166015625
aF168.00390625
aF123.453125
aF11.34375
aF73.578125
aF3.22265625
aF166.71875
aF67.20703125
aF3.953125
aF83.6171875
aF12.375
aF2.84375
aF153.625
aF9.25
aF442.8125
aF48.90625
aF105.78125
aF208.875
aF265.25
aF5.5
aF169.84375
aF321.0625
aF336.375
aF572.6875
aF482.5
aF258.4375
aF633.3125
aF593.375
aF363.75
aF333.75
aF362.25
a.(lp1
F0
aF0
aF0
aF0
aF0
aF0
aF0
aF0
aF0
aF0
aF0
aF0
aF0
aF0
aF0
aF0
aF0
aF0
aF0
aF0
aF0
aF0
aF0
aF0
aF0
aF0
aF0
aF0
aF0
aF0
aF0
aF0
aF0
aF0
aF0
aF0
aF0
aF0
aF0
aF0
aF0
aF0
aF0
aF0
aF0
aF0
aF0
aF0
aF0
aF0
aF0
aF0
aF0
aF0
aF0
aF0
aF0
aF0
aF0
aF0
aF0
aF0
aF0
aF0
aF0
aF0
aF0
aF0
aF0
aF0
aF0
aF0
aF1.1368683772161603e-13
aF0
aF0
aF0
aF5.3457238635701287e-13
aF1.1368683772161603e-13
aF0
aF1.4210854715202004e-13
aF1.1368683772161603e-13
aF1.1368683772161603e-13
aF0
aF1.1368683772161603e-13
aF4.0378811405616943e-13
aF2.2737367544323206e-13
aF7.3280270740383457e-13
aF5.8247850986958838e-13
aF2.2754020889692583e-13
aF1.1368683772161603e-13
aF1.0118017534921364e-12
aF2.2737367544323206e-13
aF3.1247227028075031e-13
aF1.2505552149377763e-12
aF1.1485257189747244e-12
aF6.8212102632969618e-13
aF1.9185208977035018e-12
aF6.8212102632969618e-13
aF4.889977311961502e-13
aF2.2737367544323206e-13
aF1.9753088054130785e-12
aF8.6691764877855348e-13
aF4.5474735088646412e-13
aF1.5917822615563182e-12
aF9.549583346313284e-13
aF1.3642420526593924e-12
aF1.5916157281026244e-12
aF1.1228795671058833e-12
aF9.0949470177292824e-13
aF1.3642975638106236e-12
aF6.3095639823984584e-12
aF2.2737367544323206e-12
aF3.6379232959404817e-12
aF3.0924707239421423e-12
aF3.3879232752553143e-12
aF7.4582229281361375e-12
aF4.6838644074398417e-12
aF8.6853857439450621e-12
aF2.4033552925573076e-12
aF3.416433802527763e-12
aF6.5484284661465608e-12
aF9.1406104907321154e-12
aF3.922195901395753e-12
aF7.0258798778866094e-12
aF2.7284841053187847e-12
aF3.0694335961811703e-12
aF2.0461965455353948e-12
aF3.2969738050780961e-12
aF3.0127011996228248e-12
aF2.7284841053187847e-12
aF1.1277756506444803e-11
aF7.6396111658993959e-12
aF1.1368794794464065e-11
aF2.1509749537074186e-11
aF9.0949470177292824e-12
aF1.944039373924511e-11
aF1.2732925824820995e-11
aF1.4779399926112546e-11
aF1.4915857438069225e-11
aF9.5498609020694403e-12
aF1.5134005160177821e-11
aF3.9654135530753366e-11
aF4.4565251489095656e-11
aF2.7284702275309769e-11
aF2.4874602377877864e-11
aF1.4324597064074851e-11
aF1.3278766974877954e-11
aF4.0017628100130764e-11
aF1.059542453773712e-11
aF8.4128259913995862e-12
aF3.2741753752674185e-11
aF4.7293668981041037e-11
aF5.0931842077162059e-11
aF5.0931703299283981e-11
aF1.0259123550682147e-10
aF3.0468016998241865e-11
aF1.331503407531187e-10
aF5.3114179721092114e-11
aF9.6661095794203789e-11
aF1.1641537733808605e-10
aF1.8335416518411307e-10
aF1.1204964733835254e-10
aF1.7753352121724611e-10
aF1.8626461484316792e-10
aF1.0419171081466061e-10
aF1.1550577161401065e-10
aF2.0663735167403275e-10
aF1.8626467035431915e-10
aF1.1059446691774611e-10
aF3.2741642730371723e-11
aF3.3760472195609736e-10
aF3.2305280672773051e-10
aF2.648449570763489e-10
aF2.8921937067494241e-10
aF3.0195229649976341e-10
aF2.9103830456733704e-11
aF2.1900632418692113e-10
aF4.1327459232576303e-10
aF1.2616527267361732e-10
aF4.6566134281889049e-10
aF4.6275105969328933e-10
aF3.6088751431684329e-10
aF4.8021325804725734e-10
aF1.6952962367476191e-10
aF8.6729406989505264e-10
aF3.6292496230494466e-10
aF1.8917473143531538e-10
aF4.6566128730773926e-10
aF5.8207660913467407e-11
aF2.5829655081466285e-10
aF1.4551931881712221e-10
aF5.529728341890916e-10
aF1.2805686455640821e-09
aF1.1641533570472262e-09
aF1.2700910045904124e-09
aF6.7520905533413611e-10
aF6.8685024334769196e-10
aF7.2177518406152195e-10
aF7.1711822591247198e-10
aF1.5133994890614844e-09
aF9.8953006899549223e-10
aF1.6414558878796726e-09
aF9.3423285774107967e-10
aF2.0081643292702012e-09
aF6.9849193096160889e-10
aF3.259629066665326e-09
aF1.1641532182693481e-09
aF1.6734704177956417e-09
aF1.7462296886261441e-09
aF1.3824318911836997e-09
aF2.4796462105847183e-09
aF2.4028122547203878e-09
aF6.1118043959140778e-10
aF3.2247045589350876e-09
aF3.2596290111541748e-09
aF6.9849193096160889e-10
aF1.6298145055770874e-09
aF9.3132257461547852e-10
aF2.0256268107310405e-09
aF3.8184224115944687e-09
aF8.4168276348606235e-09
aF6.3329935184874842e-09
aF5.7741998515936645e-09
aF8.335337220444217e-09
aF3.7252902984619141e-09
aF9.3132257461547852e-10
aF1.0579824649692427e-08
aF1.862645149230957e-09
aF9.6857548093076673e-09
aF1.8044375438286409e-09
aF3.9581209976269349e-09
aF7.683411296088849e-09
aF9.6112489911259757e-09
aF1.4901161193847656e-08
aF1.3643875884650214e-08
aF5.5879352811594174e-09
aF3.7252902984619141e-09
aF1.1175871061919196e-08
aF1.3969838563721027e-08
aF7.4505805969238281e-09
aF8.3819030050058529e-09
aF3.9488077313576399e-08
aF4.493631428070799e-08
aF5.8859586815618314e-08
aF3.8603320651198203e-08
aF1.5832483712951984e-08
aF3.0500814096612316e-08
aF4.9686059172548977e-08
aF5.34113496497568e-08
aF2.2118911091606464e-08
aF5.1110982929314377e-08
aF6.3329935018341388e-08
aF3.8743018959674913e-08
aF7.003545762773733e-08
aF6.7986547946929932e-08
aF5.4482370559494342e-08
aF5.4016709549742359e-08
aF3.1925737858928827e-08
aF3.2410025752049877e-08
aF2.8870999868590985e-08
aF2.2649765032412006e-07
aF1.132488240129792e-07
aF1.1622905732311395e-07
aF5.2154064178466797e-08
aF7.3201955375079561e-08
aF1.2367963786452663e-07
aF8.1956386566162109e-08
aF8.9406967163085938e-08
aF6.8359077121105116e-08
aF1.1153519213213948e-07
aF2.7298927296470765e-07
aF2.0861625654733373e-07
aF5.2899122550686957e-07
aF2.9802322387695312e-08
aF8.9406966996552484e-08
aF3.4086406268674098e-07
aF5.1409006149305547e-07
aF2.4922191643739211e-07
aF6.7055225427825604e-08
aF1.3709068316103413e-07
aF1.9371509535348608e-07
aF8.9257954960508812e-07
aF3.4868716602964867e-07
aF4.649162114178651e-07
aF5.4314732650384556e-07
aF2.7567148194740376e-07
aF1.8626451508962916e-07
aF1.7881393432617188e-07
aF3.7252902967965795e-07
aF1.7881393432617188e-07
aF1.4111399641025812e-06
aF7.7486038205232255e-07
aF1.4439225233808806e-06
aF7.5727701123740054e-07
aF6.2584877030813502e-07
aF6.3478945311334911e-07
aF1.2397765952743001e-06
aF8.4042549164387026e-07
aF9.0599057783746773e-07
aF1.883506763389331e-06
aF1.4686584400014357e-06
aF2.7209519574133978e-06
aF9.7751635607101757e-07
aF1.3113021850585938e-06
aF1.764297489843524e-06
aF4.3183567696170044e-06
aF2.2947788238525391e-06
aF1.1920928955078125e-06
aF1.0728836059570312e-06
aF2.2649765015203549e-06
aF3.9100646065826085e-06
aF5.5313110354726632e-06
aF4.7922124852828318e-06
aF4.7683715818092054e-06
aF3.743171692072167e-06
aF1.8835067462918964e-06
aF7.8678131104070737e-06
aF3.4141540236343193e-06
aF4.7385692594215101e-06
aF4.7922125670785132e-06
aF5.1498402899585738e-06
aF7.9035758289713876e-06
aF7.4386596680686701e-06
aF1.1444091796875e-05
aF4.9591064452125799e-06
aF2.9802322387695312e-06
aF1.1587137123625357e-05
aF1.1444091796875e-05
aF3.337860107421875e-06
aF1.9073486328125e-06
aF1.945495605483183e-05
aF2.412795729470618e-05
aF2.4795532226618011e-05
aF2.2506713867498362e-05
aF2.1600723266457234e-05
aF1.1682510375976562e-05
aF2.2506716777531688e-05
aF6.1988830568626696e-06
aF1.9073486328125e-06
aF7.1525573731856529e-06
aF1.9788742065485199e-05
aF2.6702880859319489e-05
aF2.6702880859375e-05
aF1.9836425781427637e-05
aF3.5095200873996868e-05
aF1.9550323486328125e-05
aF2.5939941406261102e-05
aF1.8119812011885283e-05
aF3.1127927825030932e-05
aF4.3487548828291535e-05
aF5.9127807617492811e-05
aF6.6566374153642638e-05
aF2.0027160644475739e-05
aF5.2738189697443262e-05
aF4.4136039912601177e-05
aF3.814697265625e-05
aF3.9215086028160374e-05
aF7.1525573730413239e-05
aF4.9209594726540296e-05
aF9.3936920166320936e-05
aF0.00011444091796877776
aF9.1552734375e-05
aF0.0001007076352891878
aF0.00013977047801055908
aF8.6975097656261102e-05
aF4.5776367187444489e-05
aF0.0001312252134141878
aF6.103515625e-05
aF8.4495544433393913e-05
aF0.0001007076352891878
aF0.00019989013671906086
aF0.00016891467571567009
aF0.00030212402343732236
aF0.00041504073888074531
aF0.00030517578124994449
aF0.00022888183593755551
aF0.00015869140625019985
aF0.00013198666274562011
aF0.00015258789062494449
aF0.00024108856917169069
aF0.00042175245287379148
aF0.00036239624023431949
aF0.000202178955078125
aF0.0005767786504580763
aF0.00042724609375016653
aF0.00030670091509800158
aF0.00031494092943612495
aF0.000518798828125
aF0.00025634765625017766
aF0.00055922910598014963
aF0.0006653308868409646
aF0.0011563091279940541
aF0.00063476562500018878
aF0.0022093564413793619
aF0.0010342388154940541
aF0.0011950678825845551
aF0.0011230468749998113
aF0.001800537109375222
aF0.00075195121783763752
aF0.0012939214735520621
aF0.0033202934302381348
aF0.0038694858900187091
aF0.0018341213464735939
aF0.000732421875
aF0.0015869140625001665
aF0.0021387834563847017
aF0.0016842842800373625
aF0.0024291992187500167
aF0.0014433861011581839
aF0.0032531738281249001
aF0.00146484375
aF0.0060058593750003109
aF0.004204071056838299
aF0.0038093566894531472
aF0.0046141720153259885
aF0.0015624999999998557
aF0.002825927734375211
aF0.007086181640625089
aF0.0034179687500001665
aF0.0068852424621584137
aF0.0053222656249998224
aF0.01327972560975621
aF0.0044952392578123555
aF0.0081527724847558769
aF0.0069920655249804953
aF0.0025390624999998114
aF0.0053100585937501665
aF0.0081054687500000111
aF0.0064453124999998114
aF0.0074315186499806733
aF0.011718749999999833
aF0.020555421826248033
aF0.016906738281249955
aF0.0064697265625
aF0.0067382812499999778
aF0.014672851562499811
aF0.025591155482156652
aF0.0041503906250000555
aF0.022094726562500056
aF0.019140625000000189
aF0.066556549072265533
aF0.035351562499999933
aF0.015625
aF0.048825073242187607
aF0.0265625000000001
aF0.025195312499999734
aF0.033230495081801134
aF0.031873052959501574
aF0.015625000000000056
aF0.048828124999999861
aF0.070312499999999944
aF0.046875
aF0.039062500000000139
aF0.12597656250000006
aF0.055468750000000296
aF0.04560622577519402
aF0.088220214843750144
aF0.0078125
aF0.084375000000000144
aF0.049557665712344892
aF0.10012538580246899
aF0.11867283950617283
aF0.13399038461538465
aF0.19778163580246932
aF0.2210645443925231
aF0.11718750000000017
aF0.09375
aF0.12520132211538482
aF0.18086538461538482
aF0.21875000000000003
aF0.12304687499999978
aF0.32812500000000011
aF0.25487804878048781
aF0.12304687499999994
aF0.21250000000000019
aF0.19765624999999981
aF0.44900901100852286
aF0.31875000000000031
aF0.09375
aF0.22851562500000006
aF0.20703125000000006
aF0.25390624999999994
aF1.378125
aF1.125
aF0.31250000000000017
aF0.34374999999999989
aF0.61250000000000004
aF0.19702380952380955
aF0.79140625000000009
aF0.50627790178571419
aF1.1812500000000004
aF0.24999999999999994
aF0.89318181818181819
aF1.1500000000000001
aF0.44140625000000017
aF0.38750000000000018
aF0.96562500000000018
aF0.67187500000000022
aF1.1421874999999999
aF0.6509943181818183
aF0.31249999999999978
aF1.3000000000000007
aF2.0700000000000003
aF1
aF1.234375
aF1.925
aF3.7062500000000007
aF1.578125
aF0.98750000000000004
aF1.53125
aF3.03125
aF3
aF6
aF7.5
aF3.8500000000000001
aF2.125
aF6
aF1
aF1.5
aF3
a.