(lp1
F2.5526802893693912e-13
aF1.3586354263850353e-13
aF1.4122036873231991e-13
aF1.285360706759775e-13
aF1.5348833315442789e-14
aF2.5565660699555792e-13
aF2.0128343436454088e-13
aF1.2390088954816747e-13
aF1.2109757641098895e-13
aF4.9432680171435095e-14
aF4.7989390239422391e-13
aF1.2629897128135781e-12
aF4.7822856785728618e-13
aF3.5282887722587475e-13
aF3.4094949086238557e-13
aF3.0253577421035526e-13
aF2.7366997557010114e-13
aF3.0164759579065503e-13
aF5.3290705182007514e-14
aF1.3355982986240633e-13
aF1.056932319443149e-13
aF1.1677325773007396e-12
aF8.4521278864713208e-13
aF5.3301807412253766e-13
aF3.6426417437951386e-13
aF4.75175454539567e-13
aF5.1636472875316031e-13
aF1.3211653993039403e-13
aF7.6916251146030845e-13
aF4.8638870708828108e-13
aF3.4283687000424996e-13
aF1.5787371410169726e-12
aF1.035616037370346e-12
aF1.2865264409356314e-12
aF6.361577931102147e-13
aF2.290834189011548e-12
aF1.4768186673563832e-12
aF1.0837997166390778e-12
aF1.2041478925084466e-12
aF1.0946799022804043e-12
aF6.0311755589737004e-12
aF5.1456616745326788e-12
aF2.0472512574087903e-12
aF2.489564110419451e-12
aF6.9588779183504812e-13
aF5.3868021154812595e-12
aF8.4332540950527052e-13
aF3.3781866193294263e-12
aF2.2288837442374643e-12
aF2.3923085734622873e-12
aF6.6995298197980963e-12
aF4.1300296516055823e-12
aF5.9410254493741377e-12
aF4.2499337382650992e-12
aF8.2875928342218685e-12
aF4.0323300254385686e-13
aF4.6558312760680823e-12
aF4.5847770024920981e-12
aF5.4729554221921717e-12
aF1.1613821015998838e-11
aF2.0277113321753859e-11
aF1.3230305739853065e-11
aF1.9593215938584763e-11
aF1.7347900893582846e-11
aF1.6047607687141863e-11
aF5.3788085097039584e-12
aF2.9560354164459568e-11
aF1.5846879364289841e-11
aF1.5837997580092633e-11
aF6.0484950381578528e-12
aF1.8058443629343153e-11
aF4.5826453742847668e-11
aF3.6184388818583102e-11
aF1.943334382303874e-11
aF3.652544933174795e-11
aF9.8054897534893826e-13
aF4.5261572267918382e-11
aF7.560174708487466e-12
aF1.9689139207912376e-11
aF6.0822458181064576e-12
aF9.9447561296984449e-11
aF2.4165558443201007e-11
aF1.4068746168049984e-11
aF2.0577317627612501e-11
aF8.4696694102603942e-11
aF3.943512183468556e-11
aF3.4248159863638897e-12
aF5.0739856760628754e-11
aF5.5919713304336428e-12
aF4.5780268465024082e-11
aF6.1803007156413514e-11
aF9.6875396593535368e-11
aF1.39010580824106e-10
aF7.3256956056866355e-11
aF3.6465053199208342e-11
aF1.0582823506411263e-10
aF8.1712414612411521e-12
aF2.4172663870565226e-11
aF2.085300820908742e-10
aF1.6869705632416629e-10
aF4.3684167394530959e-11
aF1.4921397450962104e-11
aF3.7286440601747017e-10
aF3.12070369545836e-10
aF7.9040773925953648e-11
aF3.723243935382925e-10
aF2.6770408112497535e-10
aF4.3141312744410243e-10
aF1.3196199688536591e-10
aF1.5151613297348376e-10
aF5.2193627197999213e-10
aF3.4970071283169422e-10
aF7.1298700277111493e-10
aF2.7580426831264049e-10
aF1.7860202206065878e-10
aF1.6086687537608668e-11
aF9.4689767138333991e-10
aF7.4544459494063631e-10
aF1.5768364391988143e-10
aF2.8137492336152907e-11
aF5.5183591030072421e-10
aF4.9226400733459741e-10
aF4.8680703912395984e-10
aF1.2705640983767824e-09
aF8.9949026005342603e-10
aF5.6297722039744258e-10
aF2.559090717115711e-10
aF6.0413185565266758e-10
aF6.0163074522279203e-10
aF2.1350388124120152e-10
aF1.2144028005423024e-09
aF3.0427145247813314e-09
aF5.5251803132712008e-11
aF1.9254002836532891e-09
aF2.382876118645072e-09
aF2.1100277081131935e-10
aF8.2536644185893238e-11
aF1.7141701391665265e-09
aF3.4560798667371273e-10
aF1.837179297581315e-10
aF3.8789949030615389e-10
aF3.8544385461136699e-09
aF2.3346728994511068e-09
aF3.0577211873605847e-09
aF4.6820787247270346e-09
aF1.0413714335300028e-10
aF2.0336301531642675e-09
aF2.5706867745611817e-09
aF1.6202648112084717e-09
aF6.7370820033829659e-09
aF3.9390215533785522e-09
aF1.0886651580493002e-09
aF4.5411070459522307e-09
aF1.1696101864799857e-09
aF5.7680153986710159e-09
aF1.6668309399392456e-08
aF6.083610060159117e-09
aF9.7506926977075636e-09
aF7.4487616075202823e-09
aF8.4364728536456823e-09
aF1.6763806343187033e-08
aF3.5288394428831967e-10
aF1.4879333321005106e-09
aF3.9835867937696608e-10
aF1.0148141882382333e-08
aF1.8073478713632053e-08
aF1.4295437722466886e-08
aF2.4729160941205919e-08
aF2.3901520762592554e-09
aF2.4627297534607351e-08
aF2.4228938855230808e-08
aF2.0147126633673906e-08
aF1.3005774235569714e-08
aF4.6424247557297349e-08
aF2.0489096641540527e-08
aF8.8657543528841985e-09
aF9.2113623395562172e-09
aF3.4207914723517058e-08
aF2.801243681462313e-09
aF6.526533979922533e-09
aF3.6889105103909969e-08
aF1.8342689145356417e-08
aF5.4787960834801197e-09
aF3.5863195080316883e-08
aF1.8248101696372032e-08
aF9.9324097391217947e-08
aF4.976027412340045e-08
aF6.9347152024251679e-08
aF3.166496753692627e-08
aF7.5939169619232416e-08
aF2.1122104953974485e-07
aF3.6525307223200798e-08
aF5.4496922533703307e-08
aF1.2852251531081382e-07
aF1.3013777788728476e-07
aF2.5407643988728523e-08
aF1.0908115655183792e-07
aF8.1068719737231731e-08
aF1.2306554708651531e-07
aF3.841705620292237e-09
aF4.8836227506399155e-08
aF1.270382199575204e-07
aF6.8102963268756866e-09
aF3.2392563326100188e-08
aF2.0809238776673018e-08
aF1.4089164329655901e-07
aF2.5989720611740985e-08
aF2.0256265997886658e-08
aF3.0349474400281906e-07
aF4.5989872887730598e-07
aF2.6007182896137238e-07
aF3.2794196158647537e-07
aF3.5273842514949028e-07
aF7.3353294283151627e-07
aF9.6624717116355896e-09
aF1.178705133497715e-07
aF1.3096723705530167e-08
aF5.0407834351062775e-07
aF3.3352989703416824e-07
aF2.1536834537982941e-08
aF5.0314702093601227e-07
aF5.0093512982130051e-07
aF8.7101943790912628e-07
aF1.0959338396787643e-06
aF3.206077963131132e-07
aF3.3061951421053948e-07
aF2.3166649043560028e-08
aF4.1455496102571487e-07
aF4.0919985622167587e-07
aF3.2980460673570633e-07
aF2.0926818251896032e-06
aF1.9767321646213531e-07
aF4.0442682802677155e-07
aF1.0542571562410785e-06
aF1.253793016076088e-06
aF5.0524249672889709e-08
aF1.380452886223793e-06
aF1.0174699127674103e-07
aF1.3262033462524414e-06
aF2.2018793970346451e-06
aF8.288770917200261e-08
aF1.3457611203540609e-07
aF3.3420510590076447e-06
aF4.7869980335235596e-07
aF3.7075951837550747e-06
aF2.3003667593002319e-06
aF1.8486753106117249e-07
aF1.4016404747962952e-06
aF4.2906031012535095e-06
aF1.1594966053962708e-07
aF9.2554837465286255e-06
aF9.8450109362602234e-06
aF5.5609270930290222e-06
aF4.2142346501350403e-06
aF1.1548399925231934e-06
aF1.1914409753899236e-05
aF9.7788870334625244e-07
aF4.377216100692749e-07
aF1.3543292880058289e-05
aF1.3783574246417629e-06
aF2.9044225812402402e-05
aF1.841224730014801e-05
aF1.710839569568634e-05
aF1.1811032891273499e-05
aF8.0466270446777344e-06
aF8.5923820734024048e-06
aF2.0522624254226685e-05
aF8.9332461357116699e-06
aF7.0780515670776367e-07
aF2.4531036650898841e-06
aF8.0093741416931152e-07
aF2.1014363028371008e-05
aF2.7272850275039673e-05
aF1.8231570720672607e-05
aF2.7503818275320668e-05
aF2.0876526832580566e-05
aF1.7732381820678711e-06
aF1.5467405319213867e-05
aF5.8114528656005859e-06
aF2.0526349544525146e-06
aF1.7292797565460205e-05
aF1.088529825921114e-05
aF7.2643160820007324e-06
aF4.9151480197906494e-05
aF1.2755393981933594e-05
aF1.624226571017573e-06
aF3.4071505069732666e-05
aF1.2882053852081299e-05
aF1.9073486328125e-06
aF5.9157609939575195e-06
aF0.00018236041069030762
aF9.8198652267456055e-06
aF7.9497694997598956e-05
aF2.9742717742919922e-05
aF0.00013281404972076416
aF6.9290399551391602e-05
aF0.00016957521438598633
aF4.7221779823303223e-05
aF1.8715858459472656e-05
aF2.8386712074279785e-05
aF9.095671703107655e-05
aF0.00014346837997436523
aF8.3446502685546875e-06
aF0.0003280937671661377
aF2.5868417651508935e-05
aF0.00020447373390197754
aF0.00011384487163468293
aF0.0002720952033996582
aF0.00014573335647583008
aF1.5318393820962228e-05
aF4.8518180847167969e-05
aF3.9160251617431641e-05
aF0.00025540590286254883
aF0.00029152631759643555
aF1.5556812286376953e-05
aF0.00013500452041625977
aF0.00076138973236083984
aF0.00038367509841918945
aF0.00030791765357207623
aF0.00032746791839599609
aF0.0010042190551757812
aF4.9352645874023438e-05
aF0.00076091289520263672
aF5.4001808166503906e-05
aF8.3088874816894531e-05
aF0.00024425983428955078
aF0.00027108192443847656
aF0.0011239051818847656
aF0.001290440559387207
aF0.00070559978485107422
aF0.0026109227910637856
aF0.0020189287606626749
aF0.0021731853485107422
aF0.00071263313293457031
aF0.0023453254252672195
aF0.0012252368032932281
aF0.00025486946105957031
aF0.00058603287470759824
aF0.00023126602172851562
aF0.00043892860412597656
aF0.00025463104248046875
aF0.0020647048950195312
aF0.00079298019409179688
aF0.00041199476982001215
aF0.00048542208969593048
aF0.0016789436340332031
aF0.0046343803405761719
aF0.0041666030883789062
aF0.002689361572265625
aF0.002666473388671875
aF0.0087938308715820312
aF0.00495147705078125
aF0.00461578369140625
aF0.002681732177734375
aF0.015109121799468994
aF0.0051889419701183215
aF0.0092592239379882812
aF0.0014276504516601562
aF0.0085535049438476562
aF0.0042018890380859375
aF0.0157470703125
aF0.00370025634765625
aF0.01358795166015625
aF0.0004596710205078125
aF0.0014916658401489258
aF0.0053234104998409748
aF0.016655027866363525
aF0.012729652225971222
aF0.0053997039794921875
aF0.010316848754882812
aF0.01959228515625
aF0.05755615234375
aF0.01827239990234375
aF0.012157440185546875
aF0.036991119384765625
aF0.0040130615234375
aF0.025604248046875
aF0.0013008120004087687
aF0.00164794921875
aF0.04027557373046875
aF0.0487823486328125
aF0.086517333984375
aF0.0019378736615180969
aF0.0831756591796875
aF0.047546625137329102
aF0.091256141662597656
aF0.0306396484375
aF0.1111297607421875
aF0.03656768798828125
aF0.00751495361328125
aF0.218475341796875
aF0.100830078125
aF0.004547119140625
aF0.074836745858192444
aF0.0651397705078125
aF0.1368865966796875
aF0.02484130859375
aF0.0489349365234375
aF0.0737457275390625
aF0.104461669921875
aF0.00823974609375
aF0.19281005859375
aF0.24908447265625
aF0.007904052734375
aF0.6483154296875
aF0.0296630859375
aF0.177459716796875
aF0.1356201171875
aF0.1399993896484375
aF0.351043701171875
aF0.05914306640625
aF1.1273193359375
aF0.20484161376953125
aF0.52987676858901978
aF0.35467529296875
aF0.95361328125
aF1.0009765625
aF0.28350830078125
aF0.01861572265625
aF0.39013671875
aF0.149658203125
aF0.12964057922363281
aF0.69910049438476562
aF0.0357666015625
aF0.8486328125
aF0.8775634765625
aF0.193603515625
aF0.158203125
aF0.9744873046875
aF0.4300537109375
aF3.31884765625
aF0.076171875000000111
aF2.24755859375
aF1.99072265625
aF0.1787109375
aF3.6677322387695312
aF0.494140625
aF0.8232421875
aF1.36376953125
aF1.1145181655883789
aF0.47216796875
aF4.50634765625
aF3.4267578125
aF6.583984375
aF3.923370361328125
aF0.1728973388671875
aF0.85693359375
aF0.4814453125
aF4.6474609375
aF0.59521484375
aF1.2265625
aF8.5673980712890625
aF8.544921875
aF8.306640625
aF4.2587890625
aF5.2041015625
aF11.1181640625
aF3.314453125
aF2.4921875
aF8.5888671875
aF2.521484375
aF2.17779541015625
aF9.7734375
aF3.0361328125
aF0.38671875
aF3.4140625
aF9.7109375
aF18.240234375
aF0.994140625
aF1.306640625
aF4.796875
aF40.1015625
aF26.435546875
aF23.6533203125
aF55.51953125
aF35.39453125
aF42.892578125
aF4.11328125
aF2.039306640625
aF22.564697265625
aF71.6953125
aF38.6640625
aF10.501953125
aF35.578125
aF1.859375
aF4.671875
aF13.578125
aF3.8984375
aF41.96875
aF75.0546875
aF162.96875
aF68
aF100.34375
aF109.84375
aF68.703125
aF184.140625
aF79.953125
aF3.453125
aF180.70703125
aF69.40625
aF340.09423828125
aF148.84375
aF5.53125
aF406.9375
aF14.2578125
aF28.5
aF65.46875
aF273.56298828125
aF294.8125
aF211.625
aF311.84375
aF292.6875
aF553.5
aF243.34375
aF596.75
aF554.625
aF110.25
aF171.625
aF336.6875
aF29.78125
a.(lp1
F2.5526802893693912e-13
aF1.3586354263850353e-13
aF1.4122036873231991e-13
aF1.285360706759775e-13
aF1.5348833315442789e-14
aF2.5565660699555792e-13
aF2.0128343436454088e-13
aF1.2390088954816747e-13
aF1.2109757641098895e-13
aF4.9432680171435095e-14
aF4.7989390239422391e-13
aF1.2629897128135781e-12
aF4.7822856785728618e-13
aF3.5282887722587475e-13
aF3.4094949086238557e-13
aF3.0253577421035526e-13
aF2.7366997557010114e-13
aF3.0164759579065503e-13
aF5.3290705182007514e-14
aF1.3355982986240633e-13
aF1.056932319443149e-13
aF1.1677325773007396e-12
aF8.4521278864713208e-13
aF5.3301807412253766e-13
aF3.6426417437951386e-13
aF4.75175454539567e-13
aF5.1636472875316031e-13
aF1.3211653993039403e-13
aF7.6916251146030845e-13
aF4.8638870708828108e-13
aF3.4283687000424996e-13
aF1.5787371410169726e-12
aF1.035616037370346e-12
aF1.2865264409356314e-12
aF6.361577931102147e-13
aF2.290834189011548e-12
aF1.4768186673563832e-12
aF1.0837997166390778e-12
aF1.2041478925084466e-12
aF1.0946799022804043e-12
aF6.0311755589737004e-12
aF5.1456616745326788e-12
aF2.0472512574087903e-12
aF2.489564110419451e-12
aF6.9588779183504812e-13
aF5.3868021154812595e-12
aF8.4332540950527052e-13
aF3.3781866193294263e-12
aF2.2288837442374643e-12
aF2.3923085734622873e-12
aF6.6995298197980963e-12
aF4.1300296516055823e-12
aF5.9410254493741377e-12
aF4.2499337382650992e-12
aF8.2875928342218685e-12
aF4.0323300254385686e-13
aF4.6558312760680823e-12
aF4.5847770024920981e-12
aF5.4729554221921717e-12
aF1.1613821015998838e-11
aF2.0277113321753859e-11
aF1.3230305739853065e-11
aF1.9593215938584763e-11
aF1.7347900893582846e-11
aF1.6047607687141863e-11
aF5.3788085097039584e-12
aF2.9560354164459568e-11
aF1.5846879364289841e-11
aF1.5837997580092633e-11
aF6.0484950381578528e-12
aF1.8058443629343153e-11
aF4.5826453742847668e-11
aF3.6184388818583102e-11
aF1.943334382303874e-11
aF3.652544933174795e-11
aF9.8054897534893826e-13
aF4.5261572267918382e-11
aF7.560174708487466e-12
aF1.9689139207912376e-11
aF6.0822458181064576e-12
aF9.9447561296984449e-11
aF2.4165558443201007e-11
aF1.4068746168049984e-11
aF2.0577317627612501e-11
aF8.4696694102603942e-11
aF3.943512183468556e-11
aF3.4248159863638897e-12
aF5.0739856760628754e-11
aF5.5919713304336428e-12
aF4.5780268465024082e-11
aF6.1803007156413514e-11
aF9.6875396593535368e-11
aF1.39010580824106e-10
aF7.3256956056866355e-11
aF3.6465053199208342e-11
aF1.0582823506411263e-10
aF8.1712414612411521e-12
aF2.4172663870565226e-11
aF2.085300820908742e-10
aF1.6869705632416629e-10
aF4.3684167394530959e-11
aF1.4921397450962104e-11
aF3.7286440601747017e-10
aF3.12070369545836e-10
aF7.9040773925953648e-11
aF3.723243935382925e-10
aF2.6770408112497535e-10
aF4.3141312744410243e-10
aF1.3196199688536591e-10
aF1.5151613297348376e-10
aF5.2193627197999213e-10
aF3.4970071283169422e-10
aF7.1298700277111493e-10
aF2.7580426831264049e-10
aF1.7860202206065878e-10
aF1.6086687537608668e-11
aF9.4689767138333991e-10
aF7.4544459494063631e-10
aF1.5768364391988143e-10
aF2.8137492336152907e-11
aF5.5183591030072421e-10
aF4.9226400733459741e-10
aF4.8680703912395984e-10
aF1.2705640983767824e-09
aF8.9949026005342603e-10
aF5.6297722039744258e-10
aF2.559090717115711e-10
aF6.0413185565266758e-10
aF6.0163074522279203e-10
aF2.1350388124120152e-10
aF1.2144028005423024e-09
aF3.0427145247813314e-09
aF5.5251803132712008e-11
aF1.9254002836532891e-09
aF2.382876118645072e-09
aF2.1100277081131935e-10
aF8.2536644185893238e-11
aF1.7141701391665265e-09
aF3.4560798667371273e-10
aF1.837179297581315e-10
aF3.8789949030615389e-10
aF3.8544385461136699e-09
aF2.3346728994511068e-09
aF3.0577211873605847e-09
aF4.6820787247270346e-09
aF1.0413714335300028e-10
aF2.0336301531642675e-09
aF2.5706867745611817e-09
aF1.6202648112084717e-09
aF6.7370820033829659e-09
aF3.9390215533785522e-09
aF1.0886651580493002e-09
aF4.5411070459522307e-09
aF1.1696101864799857e-09
aF5.7680153986710159e-09
aF1.6668309399392456e-08
aF6.083610060159117e-09
aF9.7506926977075636e-09
aF7.4487616075202823e-09
aF8.4364728536456823e-09
aF1.6763806343187033e-08
aF3.5288394428831967e-10
aF1.4879333321005106e-09
aF3.9835867937696608e-10
aF1.0148141882382333e-08
aF1.8073478713632053e-08
aF1.4295437722466886e-08
aF2.4729160941205919e-08
aF2.3901520762592554e-09
aF2.4627297534607351e-08
aF2.4228938855230808e-08
aF2.0147126633673906e-08
aF1.3005774235569714e-08
aF4.6424247557297349e-08
aF2.0489096641540527e-08
aF8.8657543528841985e-09
aF9.2113623395562172e-09
aF3.4207914723517058e-08
aF2.801243681462313e-09
aF6.526533979922533e-09
aF3.6889105103909969e-08
aF1.8342689145356417e-08
aF5.4787960834801197e-09
aF3.5863195080316883e-08
aF1.8248101696372032e-08
aF9.9324097391217947e-08
aF4.976027412340045e-08
aF6.9347152024251679e-08
aF3.166496753692627e-08
aF7.5939169619232416e-08
aF2.1122104953974485e-07
aF3.6525307223200798e-08
aF5.4496922533703307e-08
aF1.2852251531081382e-07
aF1.3013777788728476e-07
aF2.5407643988728523e-08
aF1.0908115655183792e-07
aF8.1068719737231731e-08
aF1.2306554708651531e-07
aF3.841705620292237e-09
aF4.8836227506399155e-08
aF1.270382199575204e-07
aF6.8102963268756866e-09
aF3.2392563326100188e-08
aF2.0809238776673018e-08
aF1.4089164329655901e-07
aF2.5989720611740985e-08
aF2.0256265997886658e-08
aF3.0349474400281906e-07
aF4.5989872887730598e-07
aF2.6007182896137238e-07
aF3.2794196158647537e-07
aF3.5273842514949028e-07
aF7.3353294283151627e-07
aF9.6624717116355896e-09
aF1.178705133497715e-07
aF1.3096723705530167e-08
aF5.0407834351062775e-07
aF3.3352989703416824e-07
aF2.1536834537982941e-08
aF5.0314702093601227e-07
aF5.0093512982130051e-07
aF8.7101943790912628e-07
aF1.0959338396787643e-06
aF3.206077963131132e-07
aF3.3061951421053948e-07
aF2.3166649043560028e-08
aF4.1455496102571487e-07
aF4.0919985622167587e-07
aF3.2980460673570633e-07
aF2.0926818251896032e-06
aF1.9767321646213531e-07
aF4.0442682802677155e-07
aF1.0542571562410785e-06
aF1.253793016076088e-06
aF5.0524249672889709e-08
aF1.380452886223793e-06
aF1.0174699127674103e-07
aF1.3262033462524414e-06
aF2.2018793970346451e-06
aF8.288770917200261e-08
aF1.3457611203540609e-07
aF3.3420510590076447e-06
aF4.7869980335235596e-07
aF3.7075951837550747e-06
aF2.3003667593002319e-06
aF1.8486753106117249e-07
aF1.4016404747962952e-06
aF4.2906031012535095e-06
aF1.1594966053962708e-07
aF9.2554837465286255e-06
aF9.8450109362602234e-06
aF5.5609270930290222e-06
aF4.2142346501350403e-06
aF1.1548399925231934e-06
aF1.1914409753899236e-05
aF9.7788870334625244e-07
aF4.377216100692749e-07
aF1.3543292880058289e-05
aF1.3783574246417629e-06
aF2.9044225812402402e-05
aF1.841224730014801e-05
aF1.710839569568634e-05
aF1.1811032891273499e-05
aF8.0466270446777344e-06
aF8.5923820734024048e-06
aF2.0522624254226685e-05
aF8.9332461357116699e-06
aF7.0780515670776367e-07
aF2.4531036650898841e-06
aF8.0093741416931152e-07
aF2.1014363028371008e-05
aF2.7272850275039673e-05
aF1.8231570720672607e-05
aF2.7503818275320668e-05
aF2.0876526832580566e-05
aF1.7732381820678711e-06
aF1.5467405319213867e-05
aF5.8114528656005859e-06
aF2.0526349544525146e-06
aF1.7292797565460205e-05
aF1.088529825921114e-05
aF7.2643160820007324e-06
aF4.9151480197906494e-05
aF1.2755393981933594e-05
aF1.624226571017573e-06
aF3.4071505069732666e-05
aF1.2882053852081299e-05
aF1.9073486328125e-06
aF5.9157609939575195e-06
aF0.00018236041069030762
aF9.8198652267456055e-06
aF7.9497694997598956e-05
aF2.9742717742919922e-05
aF0.00013281404972076416
aF6.9290399551391602e-05
aF0.00016957521438598633
aF4.7221779823303223e-05
aF1.8715858459472656e-05
aF2.8386712074279785e-05
aF9.095671703107655e-05
aF0.00014346837997436523
aF8.3446502685546875e-06
aF0.0003280937671661377
aF2.5868417651508935e-05
aF0.00020447373390197754
aF0.00011384487163468293
aF0.0002720952033996582
aF0.00014573335647583008
aF1.5318393820962228e-05
aF4.8518180847167969e-05
aF3.9160251617431641e-05
aF0.00025540590286254883
aF0.00029152631759643555
aF1.5556812286376953e-05
aF0.00013500452041625977
aF0.00076138973236083984
aF0.00038367509841918945
aF0.00030791765357207623
aF0.00032746791839599609
aF0.0010042190551757812
aF4.9352645874023438e-05
aF0.00076091289520263672
aF5.4001808166503906e-05
aF8.3088874816894531e-05
aF0.00024425983428955078
aF0.00027108192443847656
aF0.0011239051818847656
aF0.001290440559387207
aF0.00070559978485107422
aF0.0026109227910637856
aF0.0020189287606626749
aF0.0021731853485107422
aF0.00071263313293457031
aF0.0023453254252672195
aF0.0012252368032932281
aF0.00025486946105957031
aF0.00058603287470759824
aF0.00023126602172851562
aF0.00043892860412597656
aF0.00025463104248046875
aF0.0020647048950195312
aF0.00079298019409179688
aF0.00041199476982001215
aF0.00048542208969593048
aF0.0016789436340332031
aF0.0046343803405761719
aF0.0041666030883789062
aF0.002689361572265625
aF0.002666473388671875
aF0.0087938308715820312
aF0.00495147705078125
aF0.00461578369140625
aF0.002681732177734375
aF0.015109121799468994
aF0.0051889419701183215
aF0.0092592239379882812
aF0.0014276504516601562
aF0.0085535049438476562
aF0.0042018890380859375
aF0.0157470703125
aF0.00370025634765625
aF0.01358795166015625
aF0.0004596710205078125
aF0.0014916658401489258
aF0.0053234104998409748
aF0.016655027866363525
aF0.012729652225971222
aF0.0053997039794921875
aF0.010316848754882812
aF0.01959228515625
aF0.05755615234375
aF0.01827239990234375
aF0.012157440185546875
aF0.036991119384765625
aF0.0040130615234375
aF0.025604248046875
aF0.0013008120004087687
aF0.00164794921875
aF0.04027557373046875
aF0.0487823486328125
aF0.086517333984375
aF0.0019378736615180969
aF0.0831756591796875
aF0.047546625137329102
aF0.091256141662597656
aF0.0306396484375
aF0.1111297607421875
aF0.03656768798828125
aF0.00751495361328125
aF0.218475341796875
aF0.100830078125
aF0.004547119140625
aF0.074836745858192444
aF0.0651397705078125
aF0.1368865966796875
aF0.02484130859375
aF0.0489349365234375
aF0.0737457275390625
aF0.104461669921875
aF0.00823974609375
aF0.19281005859375
aF0.24908447265625
aF0.007904052734375
aF0.6483154296875
aF0.0296630859375
aF0.177459716796875
aF0.1356201171875
aF0.1399993896484375
aF0.351043701171875
aF0.05914306640625
aF1.1273193359375
aF0.20484161376953125
aF0.52987676858901978
aF0.35467529296875
aF0.95361328125
aF1.0009765625
aF0.28350830078125
aF0.01861572265625
aF0.39013671875
aF0.149658203125
aF0.12964057922363281
aF0.69910049438476562
aF0.0357666015625
aF0.8486328125
aF0.8775634765625
aF0.193603515625
aF0.158203125
aF0.9744873046875
aF0.4300537109375
aF3.31884765625
aF0.076171875000000111
aF2.24755859375
aF1.99072265625
aF0.1787109375
aF3.6677322387695312
aF0.494140625
aF0.8232421875
aF1.36376953125
aF1.1145181655883789
aF0.47216796875
aF4.50634765625
aF3.4267578125
aF6.583984375
aF3.923370361328125
aF0.1728973388671875
aF0.85693359375
aF0.4814453125
aF4.6474609375
aF0.59521484375
aF1.2265625
aF8.5673980712890625
aF8.544921875
aF8.306640625
aF4.2587890625
aF5.2041015625
aF11.1181640625
aF3.314453125
aF2.4921875
aF8.5888671875
aF2.521484375
aF2.17779541015625
aF9.7734375
aF3.0361328125
aF0.38671875
aF3.4140625
aF9.7109375
aF18.240234375
aF0.994140625
aF1.306640625
aF4.796875
aF40.1015625
aF26.435546875
aF23.6533203125
aF55.51953125
aF35.39453125
aF42.892578125
aF4.11328125
aF2.039306640625
aF22.564697265625
aF71.6953125
aF38.6640625
aF10.501953125
aF35.578125
aF1.859375
aF4.671875
aF13.578125
aF3.8984375
aF41.96875
aF75.0546875
aF162.96875
aF68
aF100.34375
aF109.84375
aF68.703125
aF184.140625
aF79.953125
aF3.453125
aF180.70703125
aF69.40625
aF340.09423828125
aF148.84375
aF5.53125
aF406.9375
aF14.2578125
aF28.5
aF65.46875
aF273.56298828125
aF294.8125
aF211.625
aF311.84375
aF292.6875
aF553.5
aF243.34375
aF596.75
aF554.625
aF110.25
aF171.625
aF336.6875
aF29.78125
a.(lp1
F0
aF0
aF0
aF0
aF0
aF0
aF0
aF0
aF0
aF0
aF0
aF0
aF0
aF0
aF0
aF0
aF0
aF0
aF0
aF0
aF0
aF0
aF0
aF0
aF0
aF0
aF0
aF0
aF0
aF0
aF0
aF0
aF0
aF0
aF0
aF0
aF0
aF0
aF0
aF0
aF0
aF0
aF0
aF0
aF0
aF0
aF0
aF0
aF0
aF0
aF0
aF0
aF0
aF0
aF0
aF0
aF0
aF0
aF0
aF0
aF0
aF0
aF1.0086376178719547e-13
aF0
aF0
aF0
aF0
aF0
aF0
aF0
aF0
aF0
aF0
aF0
aF1.4394041514265155e-13
aF1.1368683772161603e-13
aF0
aF2.7050583994991939e-13
aF1.1368683772161603e-13
aF0
aF1.1368683772161603e-13
aF2.2737367544323206e-13
aF1.1368683772161603e-13
aF4.5546899585247047e-13
aF6.5963901008103676e-13
aF3.694822225952521e-13
aF1.1368683772161603e-13
aF0
aF4.5474735088646412e-13
aF1.1368683772161603e-13
aF7.0232708537787403e-13
aF1.3756218386618002e-12
aF7.9564133059761843e-13
aF4.7195580776815405e-13
aF1.0672018824209317e-12
aF1.0345613254969521e-12
aF1.0587086762825493e-12
aF5.6843418860808015e-13
aF1.2732592757913608e-12
aF1.283639861071606e-12
aF1.3644085861130861e-12
aF2.3021584638627246e-12
aF3.638200851696638e-12
aF2.0463630789890885e-12
aF1.6370793609610246e-12
aF5.968003868872529e-13
aF3.2203684163789603e-12
aF1.5916157281026244e-12
aF1.1167844427006913e-12
aF1.1459166948668553e-12
aF5.0251469652096148e-12
aF2.4101276530075211e-12
aF2.7854385464820552e-12
aF3.1832314562052488e-12
aF2.3074875343809254e-12
aF5.5481064187290487e-12
aF3.9110048533075311e-12
aF5.5661586451094536e-12
aF5.9685312248092259e-12
aF3.7913561179436783e-12
aF4.5474735088646412e-12
aF1.0572875908110291e-11
aF1.1937117960769683e-12
aF1.2505485535996285e-11
aF3.8197778273740823e-12
aF6.3664629124104977e-12
aF6.9120709156322848e-12
aF4.4903247786720613e-12
aF1.9326762412674725e-12
aF1.4551848614985374e-11
aF1.0914158465880064e-11
aF5.4569682106375694e-12
aF7.5670025800889107e-12
aF1.2005452187935362e-11
aF5.4569682106375694e-12
aF7.4580119857614594e-12
aF1.004984984120938e-11
aF1.1823431123048067e-11
aF2.5170199258184311e-11
aF1.9190604660934697e-11
aF1.4551859717215621e-11
aF2.082718442153464e-11
aF2.2282675704587973e-11
aF7.9307949096829589e-11
aF3.9290182218820746e-11
aF3.5652092389426571e-11
aF3.9107966864904142e-11
aF4.4019399236816525e-11
aF2.628447459684935e-11
aF2.4274604548679691e-11
aF5.0931703299283981e-11
aF6.5483451994197139e-11
aF3.34695826609277e-11
aF8.4583062776033557e-11
aF3.8198888496765449e-11
aF1.5361384386736177e-10
aF4.6566001055126094e-11
aF2.4556578992473987e-11
aF1.1268644350970192e-10
aF7.275963165298549e-11
aF1.7462298274040222e-10
aF4.3655801196251787e-11
aF1.6530991020502484e-10
aF1.2259962489657994e-10
aF1.1641548836038851e-10
aF6.3846739006834246e-11
aF1.3460504932893969e-10
aF8.1490758585545109e-11
aF8.3309625864558259e-11
aF9.968048608754998e-11
aF4.3655751236215679e-10
aF2.9976945925547227e-10
aF2.5283952709287405e-10
aF9.4587393473233305e-11
aF3.3869579363354774e-10
aF3.6088779187259945e-10
aF2.3748727984163054e-10
aF4.0417943991677419e-10
aF2.4912882867766939e-10
aF2.1827878393665401e-10
aF2.6193464064405703e-10
aF5.8207677566812777e-10
aF5.9138985375462028e-10
aF5.3187273474499886e-10
aF5.1950317381255214e-10
aF5.8207647035679599e-10
aF6.2049368421135398e-10
aF5.6228602329788657e-10
aF6.9849179218373081e-10
aF1.309671260329992e-10
aF3.7107372730105226e-10
aF7.9307932443484219e-10
aF8.702047082920217e-10
aF1.7229469517765494e-09
aF1.053559017805128e-09
aF1.3096723705530167e-10
aF1.3620594541130516e-09
aF1.4042598750485524e-09
aF6.1525498584735772e-10
aF1.7695131360150865e-09
aF1.9674189388556825e-09
aF2.0954759594182804e-09
aF1.6065316299496146e-09
aF1.8044376548509433e-09
aF1.4668331549394509e-09
aF2.8871000590235951e-09
aF4.6566128730773926e-10
aF3.3061953508273235e-09
aF9.3132257461547852e-10
aF1.3969838619232178e-09
aF2.5483314070040564e-09
aF2.3283064365386963e-09
aF4.6566128730773926e-10
aF1.8626450937198058e-09
aF1.9557775510214982e-09
aF3.9115551131452261e-09
aF1.9080471369559149e-09
aF5.1164532333114465e-09
aF2.4447219248990848e-09
aF2.852175384759903e-09
aF9.7788870334625244e-09
aF3.990717256652232e-09
aF6.8102964934091403e-09
aF5.7741999515137366e-09
aF7.0780513786866671e-09
aF1.038424646271352e-08
aF5.2386896487455203e-09
aF6.2165781966605493e-09
aF2.3748725208605492e-09
aF8.1374310068049738e-09
aF2.1583400699153042e-08
aF1.9744038570745914e-08
aF3.9115548022827795e-08
aF4.190951752303107e-09
aF2.5285408089548157e-08
aF7.4505805414126769e-09
aF1.3038516044616699e-08
aF2.3394823094324833e-08
aF2.2770836605179312e-08
aF4.3073669631077394e-09
aF2.8312206127451001e-08
aF2.6822090245376408e-08
aF3.841705625839964e-08
aF1.4901161249358807e-08
aF5.704350775070921e-08
aF5.4761767454003518e-08
aF1.4901161193847656e-08
aF1.234002411365509e-08
aF1.2852251263240078e-08
aF2.4586916003155324e-08
aF5.3346157075084832e-08
aF4.4703483581542969e-08
aF2.5145709625640222e-08
aF4.0978193421858933e-08
aF6.2398612610259363e-08
aF6.5006315808080467e-08
aF5.0291418862702386e-08
aF2.9802322221161859e-08
aF1.4901161193847656e-08
aF9.015202543372069e-08
aF1.9073486379195259e-07
aF4.4703483748076422e-08
aF6.3329935018341388e-08
aF1.5553086982200703e-07
aF1.3858079911388543e-07
aF9.2387199390753239e-08
aF1.1175870895385742e-07
aF6.2584877003057926e-08
aF1.4007091506118563e-07
aF1.7583370226503803e-07
aF7.4505805969238281e-08
aF2.8349459190168958e-07
aF2.7008354686053337e-07
aF3.6954879745199065e-07
aF3.0808151092465151e-07
aF3.2484530826382141e-07
aF4.0054321043259122e-07
aF8.046627025803943e-08
aF1.7434358479118117e-07
aF2.0861625649182258e-07
aF5.9604644775390625e-08
aF1.1920928955078125e-07
aF1.7881393432617188e-07
aF1.7881393438168303e-07
aF7.7486038213558928e-07
aF2.9206275869997356e-07
aF9.7975134943917297e-07
aF1.8090009645810312e-07
aF2.5331974018438785e-07
aF1.9669532699828629e-07
aF8.6426734940969752e-07
aF1.6540288924060675e-06
aF8.1062321444225205e-07
aF9.3877315504586889e-07
aF9.5367431635073885e-07
aF5.0663948419904514e-07
aF1.2397766116278851e-06
aF6.7472457704331745e-07
aF7.3432922165217462e-07
aF1.339316366433252e-06
aF2.819299677467861e-06
aF1.3256072934342278e-06
aF8.0466270430123998e-07
aF5.0663948053530916e-07
aF1.0013580322154603e-06
aF1.0013580322154603e-06
aF2.565979823521136e-06
aF1.5497207641601562e-06
aF2.9802322389360647e-06
aF1.9454955982045607e-06
aF3.9100646974543631e-06
aF1.1622905732311395e-06
aF1.8715858459361635e-06
aF4.76837158203125e-06
aF3.8325786592907637e-06
aF1.430511474609375e-06
aF4.911422729514392e-06
aF6.3657764715285833e-06
aF5.7506563752585116e-06
aF2.5200843520034599e-06
aF1.9073486328125e-06
aF2.622604369950654e-06
aF1.6784666440811113e-05
aF9.2506408692072384e-06
aF8.7022781373735647e-06
aF6.0081481932372505e-06
aF7.8678131101295179e-06
aF7.390975952314971e-06
aF3.8146972655694888e-06
aF8.8810920715332031e-06
aF4.4107437133789062e-06
aF1.7642974853682158e-05
aF9.5367431638959665e-06
aF1.6212463379045028e-05
aF2.1457672118585513e-06
aF1.7547607421730671e-05
aF1.7070770491328658e-05
aF1.8310541054222806e-05
aF1.5163421631059216e-05
aF1.6927719116155426e-05
aF2.9373090365131249e-05
aF3.1805020335257117e-05
aF1.9454956054498763e-05
aF1.2397766113059205e-05
aF3.1948089599775908e-05
aF2.0418167558072797e-05
aF3.6001205444391449e-05
aF4.1198674589543183e-05
aF2.4414046202098083e-05
aF2.5272369384876647e-05
aF8.0871686805228377e-05
aF5.2928924560491364e-05
aF3.0517578125e-05
aF3.8909912109552637e-05
aF5.4359436035100739e-05
aF3.5095235216608955e-05
aF3.9100646972711761e-05
aF4.57763671875e-05
aF5.9509277343938738e-05
aF6.3209526240892711e-05
aF0.00022888183593766653
aF9.1170892124958769e-05
aF0.00015563964843756661
aF6.8664550781111222e-05
aF0.00012641903758087158
aF6.389617919921875e-05
aF0.00012359661050125313
aF0.0002593994140625
aF0.00016975402832036801
aF0.0001312252134141878
aF0.00019607543945326933
aF6.4849853515625e-05
aF0.00015380856394839326
aF0.00018692016601568051
aF0.0002197265625000222
aF9.1552734375e-05
aF0.0003082275390625999
aF0.00019912666641903326
aF0.00012207031249994449
aF0.00018798816204362856
aF0.00026397705078137215
aF0.00055160522460924173
aF0.00059356093443069247
aF0.00027084350585931949
aF0.0007392695555318296
aF0.00013732910156244449
aF0.00025939941406233347
aF0.0001220703125
aF0.00021194410326424995
aF0.000244140625
aF0.00080564022355206211
aF0.00035858154296869449
aF0.0012036113740878263
aF0.00089263916015613898
aF0.0013427734375001388
aF0.00068359375000012215
aF0.00085141659073972864
aF0.0015869140625
aF0.00085449218750013878
aF0.00028228759765625
aF0.0011901855468746947
aF0.00051879882812494449
aF0.0009765625
aF0.0017395019531251665
aF0.001037597656249889
aF0.0009765625
aF0.0005645751953125
aF0.0014648437500000555
aF0.0013427734375000278
aF0.0013427734375001665
aF0.001953125
aF0.0031799912452699199
aF0.0048571116055089458
aF0.0062801247926384087
aF0.00341796875
aF0.001068115234375222
aF0.002838134765625
aF0.0029296874999999445
aF0.0048828124999999445
aF0.0026550292968749445
aF0.005859375
aF0.010012512445263678
aF0.011720657348632979
aF0.0035156249999998114
aF0.006042480468749889
aF0.012695312500000056
aF0.0048828125
aF0.0052001953125001225
aF0.0099217530249804953
aF0.0037109375000000111
aF0.018134278105499391
aF0.021678468701248222
aF0.0068359375000000555
aF0.015234375000000189
aF0.0078125
aF0.023718902064188079
aF0.017285156250000315
aF0.0061035156250000555
aF0.0085449218749999445
aF0.01575596522243471
aF0.025195312499999734
aF0.028808593749999889
aF0.039245605468749833
aF0.0078125
aF0.022546881084501418
aF0.057000732421874853
aF0.014896392822265625
aF0.011718749999999944
aF0.020882910137235949
aF0.016357421874999778
aF0.031250000000000056
aF0.057777831273049356
aF0.025390625000000167
aF0.040625000000000147
aF0.049980590062111918
aF0.067257861024844892
aF0.046875
aF0.056250000000000203
aF0.015625
aF0.0546875
aF0.062500000000000056
aF0.16744384765625001
aF0.046875
aF0.13419771634615368
aF0.10312499999999981
aF0.20193533090444699
aF0.142578125
aF0.033203125000000056
aF0.18750000000000006
aF0.0517578125
aF0.11250000000000018
aF0.097656249999999944
aF0.36098484848484852
aF0.19283536585365851
aF0.28125
aF0.09375
aF0.31875000000000026
aF0.21875000000000022
aF0.35312500000000036
aF0.46347939095846047
aF0.25
aF0.62671130952380971
aF0.57031250000000022
aF0.4642857142857143
aF0.63180803571428545
aF0.18750000000000017
aF0.4534179687499999
aF0.25000000000000006
aF0.7109375
aF0.57202380952380949
aF1.4375000000000002
aF1.3375000000000004
aF0.9375
aF1.1249999999999998
aF2.4625000000000004
aF0.46875000000000033
aF0.65000000000000013
aF1.7750000000000004
aF2.4531249999999996
aF0.89062499999999978
aF2.6600000000000001
aF4.1499999999999995
aF1.5
aF4.0374999999999996
aF3.0700000000000003
aF1.2250000000000001
aF1.5624999999999998
aF3.5499999999999998
aF1.8826562499999999
aF1.1875
aF4.598958333333333
aF5.5571428571428569
aF1.5
aF4.0500000000000007
aF6.3705357142857144
aF8
aF2.625
aF2.875
aF6.625
aF3.3312500000000003
a.