(lp1
F7.1331829332166308e-15
aF5.9674487573602164e-15
aF8.4654505627668186e-15
aF5.9674487573602164e-15
aF8.1601392309949006e-15
aF5.5511151231257827e-15
aF5.6621374255882984e-15
aF6.4948046940571658e-15
aF5.3013149425851225e-15
aF5.7176485768195562e-15
aF1.0380585280245214e-14
aF1.5376588891058418e-14
aF9.5479180117763462e-15
aF1.1712852909795402e-14
aF1.3322676295501878e-14
aF1.1213252548714081e-14
aF6.6058269965196814e-15
aF1.2045919817182948e-14
aF7.9936057773011271e-15
aF2.5979218776228663e-14
aF2.0761170560490427e-14
aF2.7977620220553945e-14
aF3.6748382115092681e-14
aF1.9650947535865271e-14
aF2.8754776337791554e-14
aF2.6756374893466273e-14
aF2.6534330288541241e-14
aF1.4654943925052066e-14
aF2.9864999362416711e-14
aF4.8405723873656825e-14
aF5.6177285046032921e-14
aF5.773159728050814e-14
aF4.5519144009631418e-14
aF5.2402526762307389e-14
aF5.3290705182007514e-14
aF4.2188474935755949e-14
aF5.8619775700208265e-14
aF5.773159728050814e-14
aF1.1723955140041653e-13
aF9.4591001698063337e-14
aF1.2878587085651816e-13
aF1.2878587085651816e-13
aF8.6153306710912148e-14
aF9.1038288019262836e-14
aF8.482103908136196e-14
aF1.9184653865522705e-13
aF2.4957813593573519e-13
aF2.2293278334473143e-13
aF3.028688411177427e-13
aF2.0872192862952943e-13
aF2.4780177909633494e-13
aF2.8776980798284058e-13
aF2.5046631435543532e-13
aF1.6875389974302379e-13
aF2.5490720645393594e-13
aF5.3645976549887564e-13
aF3.6060043839825084e-13
aF4.6185277824406512e-13
aF3.801403636316536e-13
aF4.1566750041965861e-13
aF4.2810199829546077e-13
aF4.7606363295926753e-13
aF3.6415315207705135e-13
aF4.9560355819266988e-13
aF3.3217872896784684e-13
aF7.1054273576010019e-13
aF7.4251715886930469e-13
aF5.5777604757167865e-13
aF1.3145040611561853e-12
aF1.1617373729677638e-12
aF6.4304117586289067e-13
aF6.5014660322049167e-13
aF4.6895820560166612e-13
aF5.2580162446247414e-13
aF6.1817218011128716e-13
aF1.9610979506978765e-12
aF1.8616219676914625e-12
aF1.3145040611561853e-12
aF1.4281908988778014e-12
aF2.0676793610618915e-12
aF1.8900436771218665e-12
aF1.2505552149377763e-12
aF1.6129320101754274e-12
aF3.4532376957940869e-12
aF3.2969182939268649e-12
aF3.652189661806915e-12
aF2.3305801732931286e-12
aF2.9274360713316386e-12
aF2.8705926524708048e-12
aF3.680611371237319e-12
aF2.3732127374387346e-12
aF2.6716406864579767e-12
aF2.3590018827235326e-12
aF7.4464878707658499e-12
aF4.7464254748774692e-12
aF7.759126674500294e-12
aF3.950617610826157e-12
aF6.7359451350057498e-12
aF5.8264504332328215e-12
aF4.7748471843079766e-12
aF5.4569682106375694e-12
aF5.5422333389287814e-12
aF8.7538865045644343e-12
aF1.0686562745831907e-11
aF1.3301360013429075e-11
aF1.2164491636212915e-11
aF6.8780536821577698e-12
aF1.517719283583574e-11
aF1.2050804798491299e-11
aF1.3301360013429075e-11
aF1.4381384971784428e-11
aF1.0288658813806251e-11
aF1.9213075574953109e-11
aF3.2741809263825417e-11
aF1.8758328224066645e-11
aF2.0236257114447653e-11
aF2.5352164811920375e-11
aF2.1373125491663814e-11
aF2.2851054382044822e-11
aF2.148681232938543e-11
aF1.3528733688872308e-11
aF2.8762769943568856e-11
aF5.7298166211694479e-11
aF6.5483618527650833e-11
aF3.4106051316484809e-11
aF8.64019966684348e-11
aF5.7525539887137711e-11
aF5.2068571676500142e-11
aF4.8885340220294893e-11
aF2.9103830456733704e-11
aF6.8894223659299314e-11
aF8.6401996668428183e-11
aF1.3096723705530497e-10
aF9.276845958083868e-11
aF9.2313712229952216e-11
aF9.9589669844135642e-11
aF1.1277734301984641e-10
aF1.0413714335300028e-10
aF1.1186784831807017e-10
aF8.9130480773746967e-11
aF1.6234480426649416e-10
aF1.7462298274040222e-10
aF1.7644197214394808e-10
aF1.6007106751203537e-10
aF1.7007550923155082e-10
aF2.2373569663614035e-10
aF2.3010215954855084e-10
aF1.482476363889873e-10
aF1.5006662579253316e-10
aF2.1918822312727571e-10
aF2.6011548470705748e-10
aF5.2932591643184423e-10
aF3.1832314562052488e-10
aF2.8194335754960775e-10
aF3.8744474295569095e-10
aF3.5652192309498787e-10
aF4.4019543565852078e-10
aF4.0199665818363428e-10
aF3.4197000786662102e-10
aF5.0022208597553405e-10
aF3.219611244276166e-10
aF6.5847416408360004e-10
aF6.730260793119669e-10
aF7.0212990977039467e-10
aF6.9121597334742546e-10
aF5.4205884225666523e-10
aF6.9849193096160889e-10
aF6.9485395215451717e-10
aF7.6397554948925972e-10
aF5.8571458794176579e-10
aF7.9307937994599342e-10
aF9.0221874415874481e-10
aF1.8480932340093664e-09
aF2.306478563696146e-09
aF1.1204974725842476e-09
aF2.0881998352706432e-09
aF1.7753336578607559e-09
aF1.5352270565935499e-09
aF1.2878444977104664e-09
aF1.3169483281672001e-09
aF1.1423253454267979e-09
aF2.459273673593998e-09
aF3.6088749766349792e-09
aF3.5215634852647781e-09
aF2.1245796233415604e-09
aF3.3760443329811096e-09
aF5.0349626690149307e-09
aF2.9976945370435715e-09
aF3.6670826375484467e-09
aF3.2159732654690742e-09
aF3.0995579436421394e-09
aF4.7730281949043274e-09
aF7.6252035796642303e-09
aF7.0431269705295563e-09
aF6.2573235481977463e-09
aF5.8498699218034744e-09
aF8.2945916801691055e-09
aF6.5192580223083496e-09
aF5.3551048040390015e-09
aF4.5984052121639252e-09
aF4.8021320253610611e-09
aF1.2689270079135895e-08
aF1.2922100722789764e-08
aF1.100124791264534e-08
aF1.8917489796876907e-08
aF6.9267116487026215e-09
aF8.9057721197605133e-09
aF1.5774276107549667e-08
aF1.6647391021251678e-08
aF2.2759195417599437e-08
aF1.4784745872020721e-08
aF2.5844201445579529e-08
aF2.4330802261829376e-08
aF3.1315721571445465e-08
aF1.9790604710578918e-08
aF3.0966475605964661e-08
aF1.4901161193847656e-08
aF3.6437995731830597e-08
aF3.8417056202888489e-08
aF2.0139850676059723e-08
aF2.3399479687213898e-08
aF4.9592927098274231e-08
aF4.3539330363273621e-08
aF3.8417056202888489e-08
aF4.2142346501350403e-08
aF6.6356733441352844e-08
aF6.8219378590583801e-08
aF5.1222741603851318e-08
aF4.3306499719619751e-08
aF3.6787241697311401e-08
aF8.5216015577316284e-08
aF1.11758708981613e-07
aF9.1735273599624634e-08
aF9.5926225213149863e-08
aF6.0535967350006104e-08
aF6.1467289924621582e-08
aF1.0337680581007369e-07
aF1.1455267667770386e-07
aF1.2153759601507552e-07
aF1.0523945093154907e-07
aF1.0570511221885681e-07
aF2.6077032089233398e-07
aF1.4714896678924561e-07
aF1.8347054719924927e-07
aF2.1886080503463745e-07
aF2.384185791015625e-07
aF1.1641532182693481e-07
aF2.1886080503463745e-07
aF1.6763806343078613e-07
aF2.5052577257156372e-07
aF3.0267983675003052e-07
aF4.246830940246582e-07
aF4.9732625484466553e-07
aF3.1851232051849365e-07
aF6.5937638282775879e-07
aF2.905726432800293e-07
aF3.2782554626464844e-07
aF4.1350722312927246e-07
aF3.9488077163696289e-07
aF5.1967799663543701e-07
aF4.5634806200567368e-07
aF8.8289380073547363e-07
aF7.674098014831543e-07
aF8.8289380073547363e-07
aF6.891787052154541e-07
aF1.2665987014770508e-06
aF7.2270631790161133e-07
aF9.1269612312316895e-07
aF7.1898102760314941e-07
aF8.0838799476623535e-07
aF6.5937638282775879e-07
aF1.6763806343078613e-06
aF1.4826655387878418e-06
aF1.9073486328125e-06
aF1.4677643846994215e-06
aF1.5720725059509277e-06
aF2.3692846298217773e-06
aF1.5571713447570801e-06
aF1.5869736671447754e-06
aF1.5124678611755371e-06
aF1.8030405044555664e-06
aF4.2319297790527344e-06
aF3.8743019104003906e-06
aF4.0382146835327148e-06
aF3.4421682357788086e-06
aF2.8610229776404594e-06
aF2.3245811462402344e-06
aF3.7848949432373047e-06
aF2.3990869522094727e-06
aF1.8030405044555664e-06
aF2.6822090148925781e-06
aF8.4638595581054688e-06
aF3.7848949432373047e-06
aF5.4836273193359375e-06
aF6.9439411163330078e-06
aF5.3644180297851562e-06
aF6.67572021484375e-06
aF6.3776969909667969e-06
aF5.7816505432128906e-06
aF6.8843364715576172e-06
aF5.1259994506835938e-06
aF1.4126300811767578e-05
aF1.6629695892333984e-05
aF1.8179416656494141e-05
aF1.5914440155029297e-05
aF1.0609626770019531e-05
aF1.239776611328125e-05
aF1.0371208190917969e-05
aF1.7285346984863281e-05
aF1.1026859283447266e-05
aF1.5556812286376953e-05
aF3.147125244140625e-05
aF2.5153161914204247e-05
aF2.9802324206684716e-05
aF2.7298927307128906e-05
aF2.288818359375e-05
aF2.9206275939941406e-05
aF3.1232835908667766e-05
aF3.8027763366699219e-05
aF3.0636787414550781e-05
aF2.6702880859375e-05
aF4.1961669921875e-05
aF6.0319900512695312e-05
aF5.9604644775390625e-05
aF6.0319900512695312e-05
aF6.3180923461914062e-05
aF3.6954879760742188e-05
aF5.435943603515625e-05
aF6.0558319091796875e-05
aF4.7922135308908764e-05
aF5.3644180297851562e-05
aF0.0001239776611328125
aF0.00010967254638671875
aF7.5817108154296875e-05
aF0.00011205673217773438
aF0.00015592575073242188
aF0.00011444091796875
aF9.9658966064453125e-05
aF9.2983245849609375e-05
aF8.20159912109375e-05
aF7.3909759521484375e-05
aF0.00022983551025390625
aF0.00018787384033203125
aF0.0002002716064453125
aF0.00022602081298828125
aF0.0001659393310546875
aF0.00023746490478515625
aF0.0001850128173828125
aF0.00024890899658203125
aF0.00019168853759765625
aF0.00016117095947265625
aF0.0004138946533203125
aF0.00031280517578125
aF0.00055885361507534981
aF0.0004634857177734375
aF0.00037384033203125
aF0.000560760498046875
aF0.000438690185546875
aF0.0005245208740234375
aF0.0003509521484375
aF0.000255584716796875
aF0.000888824462890625
aF0.0012359619140625
aF0.001079559326171875
aF0.00070953369140625
aF0.000881195068359375
aF0.0010833740234375
aF0.000823974609375
aF0.00087356753647327423
aF0.00080490298569202423
aF0.00086212158203125
aF0.00171661376953125
aF0.0019989013671875
aF0.0016937255859375
aF0.0007476806640625
aF0.00153350830078125
aF0.00174713134765625
aF0.0014266977086663246
aF0.0017166212201118469
aF0.0013885498046875
aF0.0019683837890625
aF0.002197265625
aF0.00311279296875
aF0.0034332275390625
aF0.0039520263671875
aF0.003692626953125
aF0.00433349609375
aF0.003631591796875
aF0.00457763671875
aF0.0041046142578125
aF0.0035400390625
aF0.005645751953125
aF0.006256103515625
aF0.009124755859375
aF0.007598876953125
aF0.007598876953125
aF0.0083924531936645508
aF0.007049560546875
aF0.006500244140625
aF0.006866455078125
aF0.007904052734375
aF0.01324462890625
aF0.0115966796875
aF0.0126953125
aF0.01812744140625
aF0.00982666015625
aF0.01641845703125
aF0.01446533203125
aF0.018310546875
aF0.01251220703125
aF0.013427734375
aF0.037353754043579102
aF0.015748977661132812
aF0.0328369140625
aF0.030517578125
aF0.0242919921875
aF0.032716989517211914
aF0.0264892578125
aF0.0299072265625
aF0.0343017578125
aF0.023193359375
aF0.0637359619140625
aF0.06298828125
aF0.052001953125
aF0.059814453125
aF0.044677734375
aF0.052001953125
aF0.04590606689453125
aF0.05712890625
aF0.060546875
aF0.04736328125
aF0.0478515625
aF0.166015625
aF0.10400390625
aF0.0966796875
aF0.115234375
aF0.1337890625
aF0.119140625
aF0.14599609375
aF0.1474609375
aF0.119659423828125
aF0.2685546875
aF0.1748046875
aF0.2587890625
aF0.2626953125
aF0.279296875
aF0.197265625
aF0.2041015625
aF0.2109375
aF0.1201171875
aF0.1845703125
aF0.333984375
aF0.39453125
aF0.423828125
aF0.333984375
aF0.568359375
aF0.49609375
aF0.330078125
aF0.578125
aF0.6083984375
aF0.4296875
aF0.7265625
aF1.04296875
aF0.84375
aF0.898681640625
aF0.5654296875
aF0.7119140625
aF0.6416015625
aF0.50390625
aF0.6015625
aF0.7265625
aF1.4375
aF1.9609375
aF1.87890625
aF1.4619140625
aF2.453125
aF1.6796875
aF1.4375
aF1.7265625
aF1.640625
aF2.9453125
aF3.234375
aF2.65625
aF3.5625
aF4
aF3.1875
aF3.453125
aF3.46875
aF5.21875
aF4.65625
aF3.984375
aF9.78125
aF6.2578125
aF5.28125
aF6.25
aF10.625
aF8.53173828125
aF5.40625
aF9.125
aF6.15625
aF6.03125
aF13.3125
aF11.75
aF12.5
aF16.6875
aF20.75
aF14.875
aF14.75
aF13.8125
aF23.265625
aF17.3125
a.(lp1
F7.1331829332166308e-15
aF5.9674487573602164e-15
aF8.4654505627668186e-15
aF5.9674487573602164e-15
aF8.1601392309949006e-15
aF5.5511151231257827e-15
aF5.6621374255882984e-15
aF6.4948046940571658e-15
aF5.3013149425851225e-15
aF5.7176485768195562e-15
aF1.0380585280245214e-14
aF1.5376588891058418e-14
aF9.5479180117763462e-15
aF1.1712852909795402e-14
aF1.3322676295501878e-14
aF1.1213252548714081e-14
aF6.6058269965196814e-15
aF1.2045919817182948e-14
aF7.9936057773011271e-15
aF2.5979218776228663e-14
aF2.0761170560490427e-14
aF2.7977620220553945e-14
aF3.6748382115092681e-14
aF1.9650947535865271e-14
aF2.8754776337791554e-14
aF2.6756374893466273e-14
aF2.6534330288541241e-14
aF1.4654943925052066e-14
aF2.9864999362416711e-14
aF4.8405723873656825e-14
aF5.6177285046032921e-14
aF5.773159728050814e-14
aF4.5519144009631418e-14
aF5.2402526762307389e-14
aF5.3290705182007514e-14
aF4.2188474935755949e-14
aF5.8619775700208265e-14
aF5.773159728050814e-14
aF1.1723955140041653e-13
aF9.4591001698063337e-14
aF1.2878587085651816e-13
aF1.2878587085651816e-13
aF8.6153306710912148e-14
aF9.1038288019262836e-14
aF8.482103908136196e-14
aF1.9184653865522705e-13
aF2.4957813593573519e-13
aF2.2293278334473143e-13
aF3.028688411177427e-13
aF2.0872192862952943e-13
aF2.4780177909633494e-13
aF2.8776980798284058e-13
aF2.5046631435543532e-13
aF1.6875389974302379e-13
aF2.5490720645393594e-13
aF5.3645976549887564e-13
aF3.6060043839825084e-13
aF4.6185277824406512e-13
aF3.801403636316536e-13
aF4.1566750041965861e-13
aF4.2810199829546077e-13
aF4.7606363295926753e-13
aF3.6415315207705135e-13
aF4.9560355819266988e-13
aF3.3217872896784684e-13
aF7.1054273576010019e-13
aF7.4251715886930469e-13
aF5.5777604757167865e-13
aF1.3145040611561853e-12
aF1.1617373729677638e-12
aF6.4304117586289067e-13
aF6.5014660322049167e-13
aF4.6895820560166612e-13
aF5.2580162446247414e-13
aF6.1817218011128716e-13
aF1.9610979506978765e-12
aF1.8616219676914625e-12
aF1.3145040611561853e-12
aF1.4281908988778014e-12
aF2.0676793610618915e-12
aF1.8900436771218665e-12
aF1.2505552149377763e-12
aF1.6129320101754274e-12
aF3.4532376957940869e-12
aF3.2969182939268649e-12
aF3.652189661806915e-12
aF2.3305801732931286e-12
aF2.9274360713316386e-12
aF2.8705926524708048e-12
aF3.680611371237319e-12
aF2.3732127374387346e-12
aF2.6716406864579767e-12
aF2.3590018827235326e-12
aF7.4464878707658499e-12
aF4.7464254748774692e-12
aF7.759126674500294e-12
aF3.950617610826157e-12
aF6.7359451350057498e-12
aF5.8264504332328215e-12
aF4.7748471843079766e-12
aF5.4569682106375694e-12
aF5.5422333389287814e-12
aF8.7538865045644343e-12
aF1.0686562745831907e-11
aF1.3301360013429075e-11
aF1.2164491636212915e-11
aF6.8780536821577698e-12
aF1.517719283583574e-11
aF1.2050804798491299e-11
aF1.3301360013429075e-11
aF1.4381384971784428e-11
aF1.0288658813806251e-11
aF1.9213075574953109e-11
aF3.2741809263825417e-11
aF1.8758328224066645e-11
aF2.0236257114447653e-11
aF2.5352164811920375e-11
aF2.1373125491663814e-11
aF2.2851054382044822e-11
aF2.148681232938543e-11
aF1.3528733688872308e-11
aF2.8762769943568856e-11
aF5.7298166211694479e-11
aF6.5483618527650833e-11
aF3.4106051316484809e-11
aF8.64019966684348e-11
aF5.7525539887137711e-11
aF5.2068571676500142e-11
aF4.8885340220294893e-11
aF2.9103830456733704e-11
aF6.8894223659299314e-11
aF8.6401996668428183e-11
aF1.3096723705530497e-10
aF9.276845958083868e-11
aF9.2313712229952216e-11
aF9.9589669844135642e-11
aF1.1277734301984641e-10
aF1.0413714335300028e-10
aF1.1186784831807017e-10
aF8.9130480773746967e-11
aF1.6234480426649416e-10
aF1.7462298274040222e-10
aF1.7644197214394808e-10
aF1.6007106751203537e-10
aF1.7007550923155082e-10
aF2.2373569663614035e-10
aF2.3010215954855084e-10
aF1.482476363889873e-10
aF1.5006662579253316e-10
aF2.1918822312727571e-10
aF2.6011548470705748e-10
aF5.2932591643184423e-10
aF3.1832314562052488e-10
aF2.8194335754960775e-10
aF3.8744474295569095e-10
aF3.5652192309498787e-10
aF4.4019543565852078e-10
aF4.0199665818363428e-10
aF3.4197000786662102e-10
aF5.0022208597553405e-10
aF3.219611244276166e-10
aF6.5847416408360004e-10
aF6.730260793119669e-10
aF7.0212990977039467e-10
aF6.9121597334742546e-10
aF5.4205884225666523e-10
aF6.9849193096160889e-10
aF6.9485395215451717e-10
aF7.6397554948925972e-10
aF5.8571458794176579e-10
aF7.9307937994599342e-10
aF9.0221874415874481e-10
aF1.8480932340093664e-09
aF2.306478563696146e-09
aF1.1204974725842476e-09
aF2.0881998352706432e-09
aF1.7753336578607559e-09
aF1.5352270565935499e-09
aF1.2878444977104664e-09
aF1.3169483281672001e-09
aF1.1423253454267979e-09
aF2.459273673593998e-09
aF3.6088749766349792e-09
aF3.5215634852647781e-09
aF2.1245796233415604e-09
aF3.3760443329811096e-09
aF5.0349626690149307e-09
aF2.9976945370435715e-09
aF3.6670826375484467e-09
aF3.2159732654690742e-09
aF3.0995579436421394e-09
aF4.7730281949043274e-09
aF7.6252035796642303e-09
aF7.0431269705295563e-09
aF6.2573235481977463e-09
aF5.8498699218034744e-09
aF8.2945916801691055e-09
aF6.5192580223083496e-09
aF5.3551048040390015e-09
aF4.5984052121639252e-09
aF4.8021320253610611e-09
aF1.2689270079135895e-08
aF1.2922100722789764e-08
aF1.100124791264534e-08
aF1.8917489796876907e-08
aF6.9267116487026215e-09
aF8.9057721197605133e-09
aF1.5774276107549667e-08
aF1.6647391021251678e-08
aF2.2759195417599437e-08
aF1.4784745872020721e-08
aF2.5844201445579529e-08
aF2.4330802261829376e-08
aF3.1315721571445465e-08
aF1.9790604710578918e-08
aF3.0966475605964661e-08
aF1.4901161193847656e-08
aF3.6437995731830597e-08
aF3.8417056202888489e-08
aF2.0139850676059723e-08
aF2.3399479687213898e-08
aF4.9592927098274231e-08
aF4.3539330363273621e-08
aF3.8417056202888489e-08
aF4.2142346501350403e-08
aF6.6356733441352844e-08
aF6.8219378590583801e-08
aF5.1222741603851318e-08
aF4.3306499719619751e-08
aF3.6787241697311401e-08
aF8.5216015577316284e-08
aF1.11758708981613e-07
aF9.1735273599624634e-08
aF9.5926225213149863e-08
aF6.0535967350006104e-08
aF6.1467289924621582e-08
aF1.0337680581007369e-07
aF1.1455267667770386e-07
aF1.2153759601507552e-07
aF1.0523945093154907e-07
aF1.0570511221885681e-07
aF2.6077032089233398e-07
aF1.4714896678924561e-07
aF1.8347054719924927e-07
aF2.1886080503463745e-07
aF2.384185791015625e-07
aF1.1641532182693481e-07
aF2.1886080503463745e-07
aF1.6763806343078613e-07
aF2.5052577257156372e-07
aF3.0267983675003052e-07
aF4.246830940246582e-07
aF4.9732625484466553e-07
aF3.1851232051849365e-07
aF6.5937638282775879e-07
aF2.905726432800293e-07
aF3.2782554626464844e-07
aF4.1350722312927246e-07
aF3.9488077163696289e-07
aF5.1967799663543701e-07
aF4.5634806200567368e-07
aF8.8289380073547363e-07
aF7.674098014831543e-07
aF8.8289380073547363e-07
aF6.891787052154541e-07
aF1.2665987014770508e-06
aF7.2270631790161133e-07
aF9.1269612312316895e-07
aF7.1898102760314941e-07
aF8.0838799476623535e-07
aF6.5937638282775879e-07
aF1.6763806343078613e-06
aF1.4826655387878418e-06
aF1.9073486328125e-06
aF1.4677643846994215e-06
aF1.5720725059509277e-06
aF2.3692846298217773e-06
aF1.5571713447570801e-06
aF1.5869736671447754e-06
aF1.5124678611755371e-06
aF1.8030405044555664e-06
aF4.2319297790527344e-06
aF3.8743019104003906e-06
aF4.0382146835327148e-06
aF3.4421682357788086e-06
aF2.8610229776404594e-06
aF2.3245811462402344e-06
aF3.7848949432373047e-06
aF2.3990869522094727e-06
aF1.8030405044555664e-06
aF2.6822090148925781e-06
aF8.4638595581054688e-06
aF3.7848949432373047e-06
aF5.4836273193359375e-06
aF6.9439411163330078e-06
aF5.3644180297851562e-06
aF6.67572021484375e-06
aF6.3776969909667969e-06
aF5.7816505432128906e-06
aF6.8843364715576172e-06
aF5.1259994506835938e-06
aF1.4126300811767578e-05
aF1.6629695892333984e-05
aF1.8179416656494141e-05
aF1.5914440155029297e-05
aF1.0609626770019531e-05
aF1.239776611328125e-05
aF1.0371208190917969e-05
aF1.7285346984863281e-05
aF1.1026859283447266e-05
aF1.5556812286376953e-05
aF3.147125244140625e-05
aF2.5153161914204247e-05
aF2.9802324206684716e-05
aF2.7298927307128906e-05
aF2.288818359375e-05
aF2.9206275939941406e-05
aF3.1232835908667766e-05
aF3.8027763366699219e-05
aF3.0636787414550781e-05
aF2.6702880859375e-05
aF4.1961669921875e-05
aF6.0319900512695312e-05
aF5.9604644775390625e-05
aF6.0319900512695312e-05
aF6.3180923461914062e-05
aF3.6954879760742188e-05
aF5.435943603515625e-05
aF6.0558319091796875e-05
aF4.7922135308908764e-05
aF5.3644180297851562e-05
aF0.0001239776611328125
aF0.00010967254638671875
aF7.5817108154296875e-05
aF0.00011205673217773438
aF0.00015592575073242188
aF0.00011444091796875
aF9.9658966064453125e-05
aF9.2983245849609375e-05
aF8.20159912109375e-05
aF7.3909759521484375e-05
aF0.00022983551025390625
aF0.00018787384033203125
aF0.0002002716064453125
aF0.00022602081298828125
aF0.0001659393310546875
aF0.00023746490478515625
aF0.0001850128173828125
aF0.00024890899658203125
aF0.00019168853759765625
aF0.00016117095947265625
aF0.0004138946533203125
aF0.00031280517578125
aF0.00055885361507534981
aF0.0004634857177734375
aF0.00037384033203125
aF0.000560760498046875
aF0.000438690185546875
aF0.0005245208740234375
aF0.0003509521484375
aF0.000255584716796875
aF0.000888824462890625
aF0.0012359619140625
aF0.001079559326171875
aF0.00070953369140625
aF0.000881195068359375
aF0.0010833740234375
aF0.000823974609375
aF0.00087356753647327423
aF0.00080490298569202423
aF0.00086212158203125
aF0.00171661376953125
aF0.0019989013671875
aF0.0016937255859375
aF0.0007476806640625
aF0.00153350830078125
aF0.00174713134765625
aF0.0014266977086663246
aF0.0017166212201118469
aF0.0013885498046875
aF0.0019683837890625
aF0.002197265625
aF0.00311279296875
aF0.0034332275390625
aF0.0039520263671875
aF0.003692626953125
aF0.00433349609375
aF0.003631591796875
aF0.00457763671875
aF0.0041046142578125
aF0.0035400390625
aF0.005645751953125
aF0.006256103515625
aF0.009124755859375
aF0.007598876953125
aF0.007598876953125
aF0.0083924531936645508
aF0.007049560546875
aF0.006500244140625
aF0.006866455078125
aF0.007904052734375
aF0.01324462890625
aF0.0115966796875
aF0.0126953125
aF0.01812744140625
aF0.00982666015625
aF0.01641845703125
aF0.01446533203125
aF0.018310546875
aF0.01251220703125
aF0.013427734375
aF0.037353754043579102
aF0.015748977661132812
aF0.0328369140625
aF0.030517578125
aF0.0242919921875
aF0.032716989517211914
aF0.0264892578125
aF0.0299072265625
aF0.0343017578125
aF0.023193359375
aF0.0637359619140625
aF0.06298828125
aF0.052001953125
aF0.059814453125
aF0.044677734375
aF0.052001953125
aF0.04590606689453125
aF0.05712890625
aF0.060546875
aF0.04736328125
aF0.0478515625
aF0.166015625
aF0.10400390625
aF0.0966796875
aF0.115234375
aF0.1337890625
aF0.119140625
aF0.14599609375
aF0.1474609375
aF0.119659423828125
aF0.2685546875
aF0.1748046875
aF0.2587890625
aF0.2626953125
aF0.279296875
aF0.197265625
aF0.2041015625
aF0.2109375
aF0.1201171875
aF0.1845703125
aF0.333984375
aF0.39453125
aF0.423828125
aF0.333984375
aF0.568359375
aF0.49609375
aF0.330078125
aF0.578125
aF0.6083984375
aF0.4296875
aF0.7265625
aF1.04296875
aF0.84375
aF0.898681640625
aF0.5654296875
aF0.7119140625
aF0.6416015625
aF0.50390625
aF0.6015625
aF0.7265625
aF1.4375
aF1.9609375
aF1.87890625
aF1.4619140625
aF2.453125
aF1.6796875
aF1.4375
aF1.7265625
aF1.640625
aF2.9453125
aF3.234375
aF2.65625
aF3.5625
aF4
aF3.1875
aF3.453125
aF3.46875
aF5.21875
aF4.65625
aF3.984375
aF9.78125
aF6.2578125
aF5.28125
aF6.25
aF10.625
aF8.53173828125
aF5.40625
aF9.125
aF6.15625
aF6.03125
aF13.3125
aF11.75
aF12.5
aF16.6875
aF20.75
aF14.875
aF14.75
aF13.8125
aF23.265625
aF17.3125
a.(lp1
F0
aF0
aF0
aF0
aF0
aF0
aF0
aF0
aF0
aF0
aF0
aF0
aF0
aF0
aF0
aF0
aF0
aF0
aF0
aF0
aF0
aF0
aF0
aF0
aF0
aF0
aF0
aF0
aF0
aF0
aF0
aF0
aF0
aF0
aF0
aF0
aF0
aF0
aF0
aF0
aF0
aF0
aF0
aF0
aF0
aF0
aF0
aF0
aF0
aF0
aF0
aF0
aF0
aF0
aF0
aF0
aF0
aF0
aF0
aF0
aF0
aF1.2528866832894892e-13
aF0
aF0
aF0
aF2.2742918659446332e-13
aF3.1535885014477572e-13
aF0
aF2.3692159345500841e-13
aF1.4210854715202004e-13
aF1.705857677336553e-13
aF0
aF0
aF0
aF1.138533711753098e-13
aF2.7294833060409474e-13
aF4.5147219296381991e-13
aF6.2605476358612577e-13
aF3.4106051316484809e-13
aF1.1368683772161603e-13
aF3.8669067947694202e-13
aF0
aF0
aF1.1881606809538425e-12
aF6.8212102632969618e-13
aF9.0949470177292824e-13
aF1.1368683772161603e-13
aF9.3253182953390024e-13
aF2.2513102493348924e-12
aF1.1498024754530434e-12
aF3.4106051316484809e-13
aF4.6895820560166612e-13
aF5.1159076974727213e-13
aF1.5182854973261328e-12
aF1.7278511954543774e-12
aF2.3191171205638739e-12
aF4.4059200732249337e-13
aF2.5011104298755527e-12
aF9.0949470177292824e-13
aF1.1369238883673916e-12
aF2.9415081481687366e-12
aF1.8191559369995502e-12
aF5.0021098374486428e-13
aF6.3392069371559501e-12
aF1.8189894035458565e-12
aF3.5472180748286064e-12
aF1.955380302121057e-12
aF5.9983129574447958e-12
aF6.2244098764097089e-12
aF1.8189894035458565e-12
aF3.637978807091713e-12
aF4.3427150764329489e-12
aF5.6024906935903118e-12
aF4.1835312991622688e-12
aF9.8908103929318258e-12
aF1.0584455534257131e-11
aF3.922195901395753e-12
aF3.6380343182429442e-12
aF9.0949470177292824e-13
aF5.2751691903552e-12
aF2.6715019085798986e-12
aF1.0368295111362613e-11
aF1.819011608006349e-11
aF1.6661949597818193e-11
aF8.4129647692776643e-12
aF1.9781815074892961e-11
aF1.7162216092714289e-11
aF1.8190060568912259e-11
aF1.5120293905823701e-11
aF3.637978807091713e-12
aF3.2377989178655753e-11
aF3.3787805886476008e-11
aF6.3028021690673092e-11
aF1.8190060568912259e-11
aF3.583389140970894e-11
aF2.4920066010736264e-11
aF3.7834746446915332e-11
aF2.5001944958802369e-11
aF1.3096534967615981e-11
aF1.1823209078443142e-11
aF3.792577363270766e-11
aF6.0827193282264605e-11
aF3.637978807091713e-11
aF2.910366392328001e-11
aF8.9676366332711678e-11
aF7.6397554948925972e-11
aF4.7293668981041037e-11
aF1.3642420526593924e-11
aF5.2387028048883624e-11
aF6.1845750742861583e-11
aF5.6752658128544908e-11
aF1.7644202765509931e-10
aF7.9307616029922201e-11
aF4.5474735088646412e-11
aF9.6624558354548073e-11
aF1.3824319466948509e-10
aF1.1474191596869276e-10
aF9.1458618456385921e-11
aF1.3824325018063632e-10
aF5.2386750493127468e-11
aF1.8917489796876907e-10
aF1.4551915228366852e-10
aF2.3283064365386963e-10
aF2.3865155407454836e-10
aF5.8207605402316176e-11
aF1.3278633748114999e-10
aF4.5474901622100106e-11
aF9.4587615517838231e-11
aF8.7311546881352342e-11
aF1.1968981361576425e-10
aF2.1282176021486521e-10
aF5.8207660913467407e-11
aF4.6857184798909657e-10
aF4.8457889922914889e-10
aF4.0454342098428244e-10
aF5.5442791468854162e-10
aF1.8626450382086546e-10
aF5.2095874281206429e-10
aF3.2945537964401694e-10
aF2.4214388827381583e-10
aF1.1641532182693481e-10
aF7.2759592795179628e-10
aF6.9849198647276012e-10
aF1.2107197133737201e-09
aF1.271837579697177e-09
aF6.5891073153245827e-10
aF9.8836607786490568e-10
aF6.548361297653571e-10
aF4.6566128730773926e-10
aF7.7125145159229191e-10
aF6.5891073153245827e-10
aF9.3132257461547852e-10
aF1.4435498796316893e-09
aF9.3132251910432728e-10
aF1.1734664351337187e-09
aF1.1734664351337187e-09
aF1.7165439625266288e-09
aF1.6880219999571011e-09
aF1.7462296886261441e-09
aF2.8085198611194073e-09
aF1.874286614800269e-09
aF4.6566128175662413e-09
aF2.4447219248990848e-09
aF7.5902791274451431e-09
aF4.8021321363833636e-09
aF1.4551914673255339e-09
aF4.6566128730773926e-10
aF3.2596291776876285e-09
aF4.6333295811162856e-09
aF5.3551046375055478e-09
aF2.3283064365386963e-09
aF6.1467290701777699e-09
aF4.6566129285885438e-09
aF7.0547683250765658e-09
aF3.7252902984619141e-09
aF1.9790604710578918e-09
aF4.7497450972322497e-09
aF7.4505806524349794e-09
aF8.4983184378550902e-09
aF4.1909515302585021e-09
aF8.2654877109344937e-09
aF1.1548399736494019e-08
aF1.222360901387276e-08
aF1.1175870895385742e-08
aF1.769512905647197e-08
aF2.0116567789330021e-08
aF2.1094456126302674e-08
aF9.3132256906436339e-09
aF1.3737007920067157e-08
aF1.1175870895385742e-08
aF7.3341652195857421e-09
aF2.3795291997918965e-08
aF2.9802322443206464e-08
aF2.2817403133590375e-08
aF7.9162418842315674e-09
aF3.5390257890899335e-08
aF1.9790604710578918e-08
aF6.4913183495107774e-08
aF3.4272670962343102e-08
aF5.3318217452247296e-08
aF1.3411044930133898e-08
aF6.3329935240385993e-08
aF2.4680048171799029e-08
aF4.7497451471922858e-08
aF6.0908496690714742e-08
aF7.4505805969238281e-08
aF5.9604644775390625e-08
aF2.7474016006667767e-08
aF4.6193599556598741e-08
aF7.4505806024749432e-08
aF1.1529773480400962e-07
aF1.192092894952701e-07
aF1.4901161193847656e-07
aF4.0978193116547601e-08
aF1.8417835250805759e-07
aF8.1956386566162109e-08
aF8.9406967329619391e-08
aF7.5101852403669511e-08
aF1.3411045091116236e-07
aF1.3411045068911776e-07
aF1.1809170230581145e-07
aF2.1159648760926686e-07
aF2.384185791015625e-07
aF1.3411045074462891e-07
aF4.8428773880004883e-08
aF5.0663948064633146e-07
aF2.320110796816266e-07
aF2.5033950739050682e-07
aF3.8444995303921203e-07
aF4.4703483587094084e-07
aF2.3730099169005925e-07
aF3.576278687078549e-07
aF1.914799215296803e-07
aF7.9646705879232728e-07
aF7.0631505185714259e-07
aF7.7784061131014326e-07
aF6.1541796323449918e-07
aF2.4586915975399748e-07
aF3.0994415273211118e-07
aF5.4836272604941168e-07
aF3.7625432014465332e-07
aF2.1994112900658447e-06
aF1.1444091798984423e-06
aF2.1070242497978064e-06
aF9.2387199432386602e-07
aF3.7997961066515984e-07
aF7.0482492462442539e-07
aF6.7472457704331745e-07
aF7.152557373046875e-07
aF4.1723251342773438e-07
aF4.4733286058695754e-07
aF2.1278858184925475e-06
aF1.6987323760431217e-06
aF9.5367431640625e-07
aF2.4139881135143426e-06
aF1.1622905729535837e-06
aF5.9604644775390625e-07
aF2.8133391879181513e-06
aF2.8431415982632657e-06
aF1.6689300353756043e-06
aF1.2516975401166697e-06
aF3.9863586136668074e-06
aF7.331371307428558e-06
aF5.5193898880801232e-06
aF6.2823284131818813e-06
aF2.1338459192388193e-06
aF5.4597853797100671e-06
aF1.4305114746648862e-06
aF1.5795230863813181e-06
aF2.6226043700616763e-06
aF5.5408477931007118e-06
aF1.3351440429909545e-05
aF1.1444091796875e-05
aF1.1682509794119778e-05
aF5.8746336726589465e-06
aF1.1444091796875e-05
aF3.814697265625e-06
aF7.4863470216235408e-06
aF1.2254713510406745e-05
aF9.7274780274436704e-06
aF8.821487426591279e-06
aF3.3378601075884085e-06
aF1.7471313011080403e-05
aF8.5830688477950279e-06
aF2.5177007774057625e-05
aF1.3947486877385895e-05
aF1.3947486877385895e-05
aF1.4114378718760312e-05
aF1.7356866737816556e-05
aF1.1253357842910816e-05
aF9.775161743330596e-06
aF4.5776367187444489e-05
aF1.3732910156061263e-05
aF1.9550323486161592e-05
aF8.1062316893421027e-06
aF6.4086914062677636e-05
aF1.5258789062444489e-05
aF3.8623809814508636e-05
aF3.24249267578125e-05
aF3.4332275390791533e-05
aF3.814697265625e-06
aF8.5258472245164363e-05
aF5.4626457393236461e-05
aF1.52587890625e-05
aF6.0367521364809384e-05
aF2.8400413692231119e-05
aF8.392333984375e-05
aF3.5095214843927637e-05
aF4.673004150390625e-05
aF5.8841638384155015e-05
aF2.3841857910211761e-05
aF3.0517578125e-05
aF0.0001007080078122169
aF0.0002002716064453125
aF5.989074707041242e-05
aF1.9073486328125e-05
aF0.00027675628662124916
aF0.0001789089292345003
aF0.00011695861071372993
aF0.00010585784912120477
aF3.0517578125e-05
aF0.000152587890625
aF0.00032081537882178157
aF0.00026702880859391653
aF0.00015258789062516653
aF0.00027084350585920847
aF0.00015869140624968914
aF7.9345703125155437e-05
aF0.00021781735122223812
aF0.00026244930923000618
aF0.00021743774414056949
aF0.00018310546875005551
aF0.00080871582031238898
aF0.00054931640624994449
aF8.0108642578125e-05
aF0.00018310546875
aF0.0001953124999999889
aF0.00075224489009990676
aF0.0011474666002469491
aF0.00091859400272353842
aF0.00069046113640088838
aF0.00069091606158763752
aF0.0018203735351564831
aF0.00086975097656233347
aF0.0017013587057589374
aF0.0013351440429686945
aF0.00085449218749983347
aF0.00063476562499981126
aF0.0008544921875
aF0.0013363591136412666
aF0.0017700195312501388
aF0.0011376876845952955
aF0.0012060527805239918
aF0.002227783203125222
aF0.0020227021280207367
aF0.001998901367187278
aF0.0022917652334977501
aF0.0030179596394212249
aF0.0035400390625
aF0.0019531250000001665
aF0.0012451171874997169
aF0.0061755566520647672
aF0.0015258789062499445
aF0.0034667778089615409
aF0.0071411132812499445
aF0.00054931640624994449
aF0.0037719726562501555
aF0.0040039062499998557
aF0.0041138887405396951
aF0.0020922546505881545
aF0.0045410156250001443
aF0.016074633598327458
aF0.0050762176513673655
aF0.001953125
aF0.0091893311499803287
aF0.0044921874999998114
aF0.013542799091375568
aF0.0077344359875096691
aF0.0098266601562501891
aF0.0063601016998290905
aF0.0090332031249998612
aF0.027565777301788625
aF0.017968749999999811
aF0.013549804687500111
aF0.011542481230499058
aF0.010565918730499391
aF0.0078125
aF0.016101257514656232
aF0.018134278105499224
aF0.015018503289473822
aF0.0097656249999999445
aF0.01953125
aF0.060437377739546688
aF0.029296875
aF0.050781250000000167
aF0.062012098735408527
aF0.02157716364875395
aF0.0097656249999998612
aF0.0390625
aF0.055908203125
aF0.03125
aF0.11985473632812529
aF0.10067085597826095
aF0.054687500000000167
aF0.07275390625
aF0.03515625
aF0.038574218750000056
aF0.048437500000000147
aF0.0234375
aF0.051243174726988971
aF0.0224609375
aF0.0390625
aF0.16119384765625006
aF0.13750000000000018
aF0.069531249999999822
aF0.1678240740740739
aF0.042968750000000167
aF0.051721643518518601
aF0.28125000000000022
aF0.21245117187499979
aF0.12812500000000018
aF0.29687500000000011
aF0.27792968749999986
aF0.25000000000000011
aF0.39544231135670738
aF0.12499999999999994
aF0.097656250000000056
aF0.12500000000000006
aF0.17987804878048799
aF0.072265624999999944
aF0.23750000000000018
aF0.40312499999999973
aF0.73046874999999978
aF0.80000000000000027
aF0.24238281250000016
aF0.6015625
aF0.78515624999999978
aF0.6875
aF0.50952380952380971
aF0.40405505952380955
aF0.73925781250000011
aF0.29687500000000017
aF0.6484375
aF0.62500000000000022
aF1.0312500000000002
aF1.1250000000000002
aF1.1988636363636362
aF0.1640625
aF1.1295454545454544
aF1.8187500000000001
aF1.2011051829268293
aF6.2000000000000002
aF0.5078125
aF3.8000000000000007
aF2.3200000000000003
aF3.71875
aF1.9250000000000005
aF0.734375
aF4.84375
aF1
aF2.0750000000000002
aF4
aF2
aF4.2000000000000002
aF4
aF6.4249999999999989
aF1.75
aF4.0625
aF5.5
aF8
aF3.5
a.