(lp1
F1.3600232051658168e-13
aF2.6423307986078726e-13
aF1.4124812430793554e-13
aF2.5177082640936987e-13
aF3.1327718197360355e-13
aF1.4371837053772651e-13
aF2.7811086766860184e-14
aF1.2120859871345147e-13
aF1.2684298056342413e-13
aF6.7640337775287675e-14
aF4.9643622546113875e-13
aF3.070876886113183e-13
aF5.2285953344721747e-13
aF2.8926860906608459e-13
aF1.6764367671839864e-13
aF2.6800783814451279e-13
aF3.0087043967341747e-13
aF2.2104540420286867e-13
aF7.088218900719314e-13
aF4.102829187502266e-13
aF1.3657963648938676e-12
aF1.4456214003644163e-12
aF1.127764548414234e-12
aF1.9617640845126526e-13
aF9.6500585300418606e-13
aF8.9594998087250234e-14
aF5.4556359430080192e-13
aF1.2364553825250368e-12
aF7.6538775317658292e-13
aF9.3036689463588118e-14
aF2.0321522242738881e-12
aF1.1541878564003129e-12
aF2.4571455981003965e-12
aF1.6542323066914832e-13
aF7.2719608112947753e-13
aF2.170263968537256e-12
aF2.9982683003026978e-12
aF7.8514972301491071e-13
aF3.5988989566249107e-12
aF1.616928813064078e-12
aF2.4864554859505006e-12
aF4.2255088317233458e-12
aF2.6498803151753236e-12
aF2.4980018054066022e-12
aF5.3432813729159534e-12
aF9.6362917645365087e-12
aF6.0662586065518553e-13
aF2.5490720645393594e-12
aF2.9682922786378185e-12
aF2.8244073746463982e-12
aF3.0029312370061234e-12
aF3.9399594697897555e-12
aF5.7545079812371114e-12
aF6.2438942904918804e-13
aF3.8484770925606491e-12
aF2.4389379404965439e-12
aF1.0698109065288008e-11
aF7.5894845963375701e-12
aF2.2364332608049153e-12
aF2.283506717049022e-12
aF1.6790124846011167e-11
aF1.5221601756820746e-11
aF1.0336620448470057e-11
aF1.1736389637917455e-11
aF1.2187584275125144e-11
aF1.6029844118747912e-11
aF1.2322587394919537e-11
aF3.055689035136316e-11
aF5.4978244179437752e-12
aF8.5726981069456087e-12
aF2.4353852268177434e-11
aF1.7347900893582846e-11
aF3.2038371955422917e-11
aF3.1743496720082476e-11
aF2.4517277097402257e-11
aF1.9348078694747528e-11
aF3.4695801787165692e-11
aF1.6200374375330284e-12
aF2.5980995133068063e-11
aF6.7785776991513558e-12
aF1.1041834113711957e-11
aF8.340350632352056e-11
aF5.0832227316280049e-11
aF8.5123019744060416e-11
aF4.8949289066513302e-11
aF9.1304741545172874e-12
aF4.4430237267079065e-11
aF3.8319569739542203e-11
aF4.7620574150641914e-11
aF6.3415939166588942e-11
aF2.0861534721916541e-11
aF1.2039436114719138e-10
aF1.4534862202709274e-10
aF1.7948309505300544e-11
aF1.3164935808163467e-10
aF6.5355720835214015e-11
aF9.3251628641155548e-11
aF1.6459011931146961e-10
aF6.3806737671256997e-12
aF1.5066348169057164e-10
aF1.5512569007117159e-10
aF1.8687273950490635e-10
aF1.8016521607933431e-10
aF6.3153038354357705e-11
aF4.1649172999314032e-10
aF3.9591441236552782e-10
aF2.1404389372037258e-10
aF1.97815097635612e-10
aF5.304912065184908e-10
aF1.4543388715541701e-10
aF2.9768898457405199e-10
aF6.0845195548608899e-10
aF7.4328454502403148e-10
aF3.9028691389830783e-10
aF2.699493961700302e-10
aF2.596038939373102e-10
aF7.6852302299812436e-10
aF1.6217427400988527e-10
aF6.4494543039472774e-10
aF1.6279955161735415e-10
aF2.5750068743946031e-10
aF9.8384589364286512e-10
aF1.5006662579253316e-10
aF2.2475887817563489e-10
aF1.7253114492632449e-09
aF3.0956925911596707e-10
aF4.8476067604497075e-10
aF1.0172698239330202e-09
aF1.4244960766518654e-10
aF1.0502390068722889e-09
aF1.004309524432756e-09
aF1.412900019204244e-09
aF1.3087628758512437e-09
aF1.1812062439292912e-09
aF1.6009380487957969e-09
aF2.1555024432018399e-09
aF1.8530954548623413e-10
aF2.9406237445073202e-09
aF9.2541085905395448e-10
aF1.2078089639546605e-09
aF1.9690560293383896e-09
aF4.2091414798051384e-09
aF4.1873136069625616e-09
aF3.3878677641041577e-09
aF7.1877366281114519e-09
aF4.6948116505518556e-09
aF1.9267645257059749e-09
aF1.9781509763606188e-10
aF2.1200321498326957e-09
aF5.766196409240365e-10
aF7.6479409472085536e-09
aF9.4223651103675365e-10
aF6.7302607932551942e-10
aF9.9580574897117913e-09
aF4.2509782360866666e-09
aF2.8558133635839353e-10
aF5.9826561482623219e-09
aF1.2787495506927371e-09
aF1.379976311000064e-08
aF3.957211447420787e-09
aF7.9817255027592182e-09
aF3.8562575355172819e-10
aF1.0473740985617042e-08
aF1.5334080672975772e-09
aF1.6385456547141075e-08
aF2.7685018721967936e-09
aF8.9748937170952559e-09
aF1.0002622730098665e-08
aF4.4346961658447981e-09
aF5.6006683735176921e-09
aF3.3473043004050851e-08
aF4.1920429795418851e-08
aF9.2804839368909597e-09
aF1.038642949424684e-08
aF2.9762304620817304e-08
aF6.7884684540331364e-09
aF3.1279341783374548e-08
aF3.2010575523599982e-08
aF2.2260792320594192e-08
aF6.530171958736401e-09
aF3.958848537877202e-08
aF1.7098500393331051e-09
aF3.8766302168477713e-08
aF4.4594344217330217e-08
aF3.7129211708647469e-08
aF1.4348188415169716e-08
aF1.1148949852386736e-07
aF3.1235686037696224e-08
aF6.651680450886488e-08
aF3.1497620512667412e-08
aF1.0812073014676571e-08
aF8.440110832452774e-09
aF7.7619915828108788e-08
aF2.6528141461312771e-08
aF1.00335455503086e-07
aF2.1755113266408443e-08
aF7.437483873218298e-08
aF2.2356107365339994e-07
aF6.3591869548234193e-09
aF8.4692146629989544e-08
aF2.4700420908629894e-07
aF9.6770236282517352e-08
aF1.2599048205066965e-07
aF1.5393015929965077e-07
aF1.4909892342984676e-07
aF5.0175003707408905e-08
aF2.773595042526722e-07
aF7.4505805969238281e-09
aF2.3515895009040833e-08
aF6.5891072160983999e-08
aF3.9755832403952449e-08
aF4.5954948291182518e-07
aF3.3370452001690865e-07
aF6.5349740910325416e-07
aF8.4983184933662415e-09
aF5.6670978665351868e-07
aF2.566375769674778e-07
aF2.9528746392504246e-07
aF1.9225990399718285e-07
aF2.9482180252671242e-07
aF1.5713740140199661e-06
aF1.0943040251731873e-07
aF1.2045493349432945e-06
aF2.1536834593494092e-08
aF6.8801455199740159e-07
aF9.2200934886932373e-08
aF9.4179995802079475e-08
aF9.383074939250946e-08
aF5.7509168982505798e-07
aF6.1653554439544678e-07
aF1.6230624169180641e-06
aF1.0079238581539585e-06
aF2.9308721423149109e-06
aF2.3283064365386963e-07
aF2.4808105081319809e-06
aF7.7649019658565521e-07
aF1.0151416063308716e-06
aF5.3551048040390015e-08
aF4.4747721403837204e-06
aF1.0288786143064499e-06
aF4.777219146490097e-06
aF2.413522452119482e-06
aF2.0470470190048218e-06
aF9.6857547760009766e-08
aF2.3320317268371582e-06
aF3.2638199627399445e-06
aF2.9900111258029938e-06
aF2.4819746613502502e-07
aF3.3113174140453339e-06
aF2.4880282580852509e-06
aF9.1614201664924622e-06
aF5.3187832236428756e-06
aF5.9884041548885492e-06
aF2.5741756104480373e-06
aF8.130446076615172e-06
aF8.2608312368392944e-06
aF2.4773180484771729e-07
aF1.862645149230957e-07
aF5.6326389312744141e-06
aF2.2947788256288959e-06
aF1.6663223505020142e-05
aF8.2608312368392944e-06
aF8.5532665252685547e-06
aF3.9618462324142456e-06
aF4.7795474529266357e-06
aF8.4303319454193115e-06
aF2.8368085622787476e-06
aF1.5916302913865366e-05
aF1.4146789908409119e-05
aF2.5779008865356445e-05
aF7.0445240680783172e-06
aF9.2387199401855469e-07
aF3.7249177694320679e-05
aF2.7194619178771973e-05
aF1.134723424911499e-05
aF1.6372651089113788e-05
aF3.3318996429443359e-05
aF9.424984472872211e-07
aF6.8545341846970587e-07
aF9.797513484954834e-07
aF3.2112002372741699e-06
aF5.5976212031794148e-05
aF6.1094760894775391e-06
aF9.719282479636604e-05
aF5.1289797738718335e-05
aF3.8564205169677734e-05
aF3.5680830478668213e-05
aF2.4624168872833252e-05
aF5.3048133850097656e-06
aF3.4183263778686523e-05
aF3.8623809814453125e-05
aF0.00020162761211395264
aF8.0049037961771319e-05
aF4.2527914047241211e-05
aF0.00012995302677154541
aF1.1071562767028809e-05
aF0.00013424456119537354
aF0.00010229647159576416
aF3.4630298614501953e-05
aF0.00015811622142791748
aF0.00029587745666503906
aF0.00026750564575195312
aF0.00021019579446601711
aF0.00015395879745483398
aF0.0002753138542175293
aF3.2365322113037109e-05
aF7.6889991760253906e-06
aF0.0003375113446963951
aF0.00019791722297668457
aF2.4378299826821603e-05
aF0.00026142597198486328
aF0.00078827142715454102
aF0.00072413688758388162
aF0.00032705080235473361
aF4.76837158203125e-05
aF8.2850456237792969e-06
aF0.00031709671020507812
aF0.00071662664413452148
aF0.00018066167831420898
aF4.3392181396484375e-05
aF0.00061643123626708984
aF0.0010920763018020807
aF0.00064373016357421875
aF0.0011526346206665039
aF0.00095236301422119141
aF0.0010778908617794514
aF0.00052905085613019764
aF4.38690185546875e-05
aF4.3988227844238281e-05
aF0.00063908100128173828
aF6.9856650952715427e-05
aF5.6505203247070312e-05
aF0.0005970001220703125
aF0.00054407492280006409
aF0.00012040138244628906
aF0.00030159950256347656
aF0.0011477470397949219
aF0.00018620491027832031
aF0.0012035369873046875
aF5.340576171875e-05
aF0.0025434494018554688
aF0.0013737678527832031
aF0.002048492431640625
aF0.0029206276230979711
aF0.0065794065594673157
aF0.0043730735778808594
aF0.0046219825744628906
aF0.00037145614624023438
aF0.00049161911010742188
aF0.004407406784594059
aF0.0084457416087388992
aF0.0051488876342773438
aF0.0041723251342773438
aF0.00049114227294921875
aF0.010213852860033512
aF0.0052891075611114502
aF0.004413604736328125
aF0.0002193450927734375
aF0.0051622390747070312
aF0.013584136962890625
aF0.018115997314453125
aF0.021284103393554688
aF0.000530242919921875
aF0.011327743530273438
aF0.0020428895950317383
aF0.010280609130859375
aF0.001468658447265625
aF0.01511383056640625
aF0.0010890960693359375
aF0.0092411041259765625
aF0.033111810684204102
aF0.038543703034520149
aF0.024170400574803352
aF0.03047943115234375
aF0.037868499755859375
aF0.047412872314453125
aF0.005603790283203125
aF0.00226593017578125
aF0.018581390380859375
aF0.020313262939453125
aF0.0338287353515625
aF0.03366851806640625
aF0.00701141357421875
aF0.03665924072265625
aF0.06710052490234375
aF0.00213623046875
aF0.01587725430727005
aF0.0116119384765625
aF0.0090417861938476562
aF0.0040893629193305969
aF0.0117034912109375
aF0.0663299560546875
aF0.1435546875
aF0.009033203125
aF0.0298614501953125
aF0.003875732421875
aF0.1085662879049778
aF0.1703033447265625
aF0.0728302001953125
aF0.191497802734375
aF0.350677490234375
aF0.1322021484375
aF0.4517822265625
aF0.257049560546875
aF0.33551025390625
aF0.02392578125
aF0.168548583984375
aF0.0911865234375
aF0.2421875
aF0.2015380859375
aF0.4197998046875
aF0.394775390625
aF0.010376513004302979
aF0.01153564453125
aF0.2620849609375
aF0.34210205078125
aF0.3956298828125
aF0.1072998046875
aF0.327392578125
aF0.250732421875
aF1.59423828125
aF1.380859375
aF0.0284423828125
aF0.3450927734375
aF1.8907470703125
aF0.1370849609375
aF1.1583251953125
aF0.0263671875
aF0.5717775821685791
aF0.034423828125
aF0.775146484375
aF0.609130859375
aF0.5966796875
aF0.169189453125
aF1.38427734375
aF0.12744140625
aF0.137939453125
aF0.302490234375
aF2.134033203125
aF0.0478515625
aF1.15869140625
aF3.34814453125
aF2.8876953125
aF1.688018798828125
aF1.54248046875
aF0.5166015625
aF3.66357421875
aF2.8564453125
aF0.48681640625
aF2.32763671875
aF2.1387939453125
aF3.0087890625
aF5.7705078125
aF7.2099609375
aF8.357421875
aF1.3818359375
aF0.7138671875
aF3.0224609375
aF13.82421875
aF4.7138671875
aF4.8583984375
aF20.50390625
aF3.361328125
aF12.87939453125
aF0.40625
aF3.98046875
aF8.990234375
aF26.376953125
aF18.9375
aF20.76171875
aF3.2587890625
aF18.44140625
aF63.46484375
aF37.3828125
aF44.9462890625
aF30.330078125
aF19.064453125
aF2.5859375
aF0.72265625
aF9.73828125
aF5.6015625
aF114.546875
aF48.921875
aF70.5390625
aF75.0703125
aF3.4453125
aF53.2578125
aF66.4375
aF38.78125
aF36.1640625
aF227.484375
aF79.53125
aF85.03125
aF55.0234375
aF104.96875
aF87.765625
aF136.75390625
aF173.34375
aF74.1015625
aF140.8046875
aF153.28125
aF261.65625
aF421.6875
aF24.5
aF151.890625
aF604.15625
aF272.125
aF184.4375
aF408.75
aF7.15625
aF16.15625
aF319.5
aF602.5
aF472.8125
aF147.75
aF1014.75
aF464.3125
aF299.25
aF424.8125
aF620.0625
a.(lp1
F1.3600232051658168e-13
aF2.6423307986078726e-13
aF1.4124812430793554e-13
aF2.5177082640936987e-13
aF3.1327718197360355e-13
aF1.4371837053772651e-13
aF2.7811086766860184e-14
aF1.2120859871345147e-13
aF1.2684298056342413e-13
aF6.7640337775287675e-14
aF4.9643622546113875e-13
aF3.070876886113183e-13
aF5.2285953344721747e-13
aF2.8926860906608459e-13
aF1.6764367671839864e-13
aF2.6800783814451279e-13
aF3.0087043967341747e-13
aF2.2104540420286867e-13
aF7.088218900719314e-13
aF4.102829187502266e-13
aF1.3657963648938676e-12
aF1.4456214003644163e-12
aF1.127764548414234e-12
aF1.9617640845126526e-13
aF9.6500585300418606e-13
aF8.9594998087250234e-14
aF5.4556359430080192e-13
aF1.2364553825250368e-12
aF7.6538775317658292e-13
aF9.3036689463588118e-14
aF2.0321522242738881e-12
aF1.1541878564003129e-12
aF2.4571455981003965e-12
aF1.6542323066914832e-13
aF7.2719608112947753e-13
aF2.170263968537256e-12
aF2.9982683003026978e-12
aF7.8514972301491071e-13
aF3.5988989566249107e-12
aF1.616928813064078e-12
aF2.4864554859505006e-12
aF4.2255088317233458e-12
aF2.6498803151753236e-12
aF2.4980018054066022e-12
aF5.3432813729159534e-12
aF9.6362917645365087e-12
aF6.0662586065518553e-13
aF2.5490720645393594e-12
aF2.9682922786378185e-12
aF2.8244073746463982e-12
aF3.0029312370061234e-12
aF3.9399594697897555e-12
aF5.7545079812371114e-12
aF6.2438942904918804e-13
aF3.8484770925606491e-12
aF2.4389379404965439e-12
aF1.0698109065288008e-11
aF7.5894845963375701e-12
aF2.2364332608049153e-12
aF2.283506717049022e-12
aF1.6790124846011167e-11
aF1.5221601756820746e-11
aF1.0336620448470057e-11
aF1.1736389637917455e-11
aF1.2187584275125144e-11
aF1.6029844118747912e-11
aF1.2322587394919537e-11
aF3.055689035136316e-11
aF5.4978244179437752e-12
aF8.5726981069456087e-12
aF2.4353852268177434e-11
aF1.7347900893582846e-11
aF3.2038371955422917e-11
aF3.1743496720082476e-11
aF2.4517277097402257e-11
aF1.9348078694747528e-11
aF3.4695801787165692e-11
aF1.6200374375330284e-12
aF2.5980995133068063e-11
aF6.7785776991513558e-12
aF1.1041834113711957e-11
aF8.340350632352056e-11
aF5.0832227316280049e-11
aF8.5123019744060416e-11
aF4.8949289066513302e-11
aF9.1304741545172874e-12
aF4.4430237267079065e-11
aF3.8319569739542203e-11
aF4.7620574150641914e-11
aF6.3415939166588942e-11
aF2.0861534721916541e-11
aF1.2039436114719138e-10
aF1.4534862202709274e-10
aF1.7948309505300544e-11
aF1.3164935808163467e-10
aF6.5355720835214015e-11
aF9.3251628641155548e-11
aF1.6459011931146961e-10
aF6.3806737671256997e-12
aF1.5066348169057164e-10
aF1.5512569007117159e-10
aF1.8687273950490635e-10
aF1.8016521607933431e-10
aF6.3153038354357705e-11
aF4.1649172999314032e-10
aF3.9591441236552782e-10
aF2.1404389372037258e-10
aF1.97815097635612e-10
aF5.304912065184908e-10
aF1.4543388715541701e-10
aF2.9768898457405199e-10
aF6.0845195548608899e-10
aF7.4328454502403148e-10
aF3.9028691389830783e-10
aF2.699493961700302e-10
aF2.596038939373102e-10
aF7.6852302299812436e-10
aF1.6217427400988527e-10
aF6.4494543039472774e-10
aF1.6279955161735415e-10
aF2.5750068743946031e-10
aF9.8384589364286512e-10
aF1.5006662579253316e-10
aF2.2475887817563489e-10
aF1.7253114492632449e-09
aF3.0956925911596707e-10
aF4.8476067604497075e-10
aF1.0172698239330202e-09
aF1.4244960766518654e-10
aF1.0502390068722889e-09
aF1.004309524432756e-09
aF1.412900019204244e-09
aF1.3087628758512437e-09
aF1.1812062439292912e-09
aF1.6009380487957969e-09
aF2.1555024432018399e-09
aF1.8530954548623413e-10
aF2.9406237445073202e-09
aF9.2541085905395448e-10
aF1.2078089639546605e-09
aF1.9690560293383896e-09
aF4.2091414798051384e-09
aF4.1873136069625616e-09
aF3.3878677641041577e-09
aF7.1877366281114519e-09
aF4.6948116505518556e-09
aF1.9267645257059749e-09
aF1.9781509763606188e-10
aF2.1200321498326957e-09
aF5.766196409240365e-10
aF7.6479409472085536e-09
aF9.4223651103675365e-10
aF6.7302607932551942e-10
aF9.9580574897117913e-09
aF4.2509782360866666e-09
aF2.8558133635839353e-10
aF5.9826561482623219e-09
aF1.2787495506927371e-09
aF1.379976311000064e-08
aF3.957211447420787e-09
aF7.9817255027592182e-09
aF3.8562575355172819e-10
aF1.0473740985617042e-08
aF1.5334080672975772e-09
aF1.6385456547141075e-08
aF2.7685018721967936e-09
aF8.9748937170952559e-09
aF1.0002622730098665e-08
aF4.4346961658447981e-09
aF5.6006683735176921e-09
aF3.3473043004050851e-08
aF4.1920429795418851e-08
aF9.2804839368909597e-09
aF1.038642949424684e-08
aF2.9762304620817304e-08
aF6.7884684540331364e-09
aF3.1279341783374548e-08
aF3.2010575523599982e-08
aF2.2260792320594192e-08
aF6.530171958736401e-09
aF3.958848537877202e-08
aF1.7098500393331051e-09
aF3.8766302168477713e-08
aF4.4594344217330217e-08
aF3.7129211708647469e-08
aF1.4348188415169716e-08
aF1.1148949852386736e-07
aF3.1235686037696224e-08
aF6.651680450886488e-08
aF3.1497620512667412e-08
aF1.0812073014676571e-08
aF8.440110832452774e-09
aF7.7619915828108788e-08
aF2.6528141461312771e-08
aF1.00335455503086e-07
aF2.1755113266408443e-08
aF7.437483873218298e-08
aF2.2356107365339994e-07
aF6.3591869548234193e-09
aF8.4692146629989544e-08
aF2.4700420908629894e-07
aF9.6770236282517352e-08
aF1.2599048205066965e-07
aF1.5393015929965077e-07
aF1.4909892342984676e-07
aF5.0175003707408905e-08
aF2.773595042526722e-07
aF7.4505805969238281e-09
aF2.3515895009040833e-08
aF6.5891072160983999e-08
aF3.9755832403952449e-08
aF4.5954948291182518e-07
aF3.3370452001690865e-07
aF6.5349740910325416e-07
aF8.4983184933662415e-09
aF5.6670978665351868e-07
aF2.566375769674778e-07
aF2.9528746392504246e-07
aF1.9225990399718285e-07
aF2.9482180252671242e-07
aF1.5713740140199661e-06
aF1.0943040251731873e-07
aF1.2045493349432945e-06
aF2.1536834593494092e-08
aF6.8801455199740159e-07
aF9.2200934886932373e-08
aF9.4179995802079475e-08
aF9.383074939250946e-08
aF5.7509168982505798e-07
aF6.1653554439544678e-07
aF1.6230624169180641e-06
aF1.0079238581539585e-06
aF2.9308721423149109e-06
aF2.3283064365386963e-07
aF2.4808105081319809e-06
aF7.7649019658565521e-07
aF1.0151416063308716e-06
aF5.3551048040390015e-08
aF4.4747721403837204e-06
aF1.0288786143064499e-06
aF4.777219146490097e-06
aF2.413522452119482e-06
aF2.0470470190048218e-06
aF9.6857547760009766e-08
aF2.3320317268371582e-06
aF3.2638199627399445e-06
aF2.9900111258029938e-06
aF2.4819746613502502e-07
aF3.3113174140453339e-06
aF2.4880282580852509e-06
aF9.1614201664924622e-06
aF5.3187832236428756e-06
aF5.9884041548885492e-06
aF2.5741756104480373e-06
aF8.130446076615172e-06
aF8.2608312368392944e-06
aF2.4773180484771729e-07
aF1.862645149230957e-07
aF5.6326389312744141e-06
aF2.2947788256288959e-06
aF1.6663223505020142e-05
aF8.2608312368392944e-06
aF8.5532665252685547e-06
aF3.9618462324142456e-06
aF4.7795474529266357e-06
aF8.4303319454193115e-06
aF2.8368085622787476e-06
aF1.5916302913865366e-05
aF1.4146789908409119e-05
aF2.5779008865356445e-05
aF7.0445240680783172e-06
aF9.2387199401855469e-07
aF3.7249177694320679e-05
aF2.7194619178771973e-05
aF1.134723424911499e-05
aF1.6372651089113788e-05
aF3.3318996429443359e-05
aF9.424984472872211e-07
aF6.8545341846970587e-07
aF9.797513484954834e-07
aF3.2112002372741699e-06
aF5.5976212031794148e-05
aF6.1094760894775391e-06
aF9.719282479636604e-05
aF5.1289797738718335e-05
aF3.8564205169677734e-05
aF3.5680830478668213e-05
aF2.4624168872833252e-05
aF5.3048133850097656e-06
aF3.4183263778686523e-05
aF3.8623809814453125e-05
aF0.00020162761211395264
aF8.0049037961771319e-05
aF4.2527914047241211e-05
aF0.00012995302677154541
aF1.1071562767028809e-05
aF0.00013424456119537354
aF0.00010229647159576416
aF3.4630298614501953e-05
aF0.00015811622142791748
aF0.00029587745666503906
aF0.00026750564575195312
aF0.00021019579446601711
aF0.00015395879745483398
aF0.0002753138542175293
aF3.2365322113037109e-05
aF7.6889991760253906e-06
aF0.0003375113446963951
aF0.00019791722297668457
aF2.4378299826821603e-05
aF0.00026142597198486328
aF0.00078827142715454102
aF0.00072413688758388162
aF0.00032705080235473361
aF4.76837158203125e-05
aF8.2850456237792969e-06
aF0.00031709671020507812
aF0.00071662664413452148
aF0.00018066167831420898
aF4.3392181396484375e-05
aF0.00061643123626708984
aF0.0010920763018020807
aF0.00064373016357421875
aF0.0011526346206665039
aF0.00095236301422119141
aF0.0010778908617794514
aF0.00052905085613019764
aF4.38690185546875e-05
aF4.3988227844238281e-05
aF0.00063908100128173828
aF6.9856650952715427e-05
aF5.6505203247070312e-05
aF0.0005970001220703125
aF0.00054407492280006409
aF0.00012040138244628906
aF0.00030159950256347656
aF0.0011477470397949219
aF0.00018620491027832031
aF0.0012035369873046875
aF5.340576171875e-05
aF0.0025434494018554688
aF0.0013737678527832031
aF0.002048492431640625
aF0.0029206276230979711
aF0.0065794065594673157
aF0.0043730735778808594
aF0.0046219825744628906
aF0.00037145614624023438
aF0.00049161911010742188
aF0.004407406784594059
aF0.0084457416087388992
aF0.0051488876342773438
aF0.0041723251342773438
aF0.00049114227294921875
aF0.010213852860033512
aF0.0052891075611114502
aF0.004413604736328125
aF0.0002193450927734375
aF0.0051622390747070312
aF0.013584136962890625
aF0.018115997314453125
aF0.021284103393554688
aF0.000530242919921875
aF0.011327743530273438
aF0.0020428895950317383
aF0.010280609130859375
aF0.001468658447265625
aF0.01511383056640625
aF0.0010890960693359375
aF0.0092411041259765625
aF0.033111810684204102
aF0.038543703034520149
aF0.024170400574803352
aF0.03047943115234375
aF0.037868499755859375
aF0.047412872314453125
aF0.005603790283203125
aF0.00226593017578125
aF0.018581390380859375
aF0.020313262939453125
aF0.0338287353515625
aF0.03366851806640625
aF0.00701141357421875
aF0.03665924072265625
aF0.06710052490234375
aF0.00213623046875
aF0.01587725430727005
aF0.0116119384765625
aF0.0090417861938476562
aF0.0040893629193305969
aF0.0117034912109375
aF0.0663299560546875
aF0.1435546875
aF0.009033203125
aF0.0298614501953125
aF0.003875732421875
aF0.1085662879049778
aF0.1703033447265625
aF0.0728302001953125
aF0.191497802734375
aF0.350677490234375
aF0.1322021484375
aF0.4517822265625
aF0.257049560546875
aF0.33551025390625
aF0.02392578125
aF0.168548583984375
aF0.0911865234375
aF0.2421875
aF0.2015380859375
aF0.4197998046875
aF0.394775390625
aF0.010376513004302979
aF0.01153564453125
aF0.2620849609375
aF0.34210205078125
aF0.3956298828125
aF0.1072998046875
aF0.327392578125
aF0.250732421875
aF1.59423828125
aF1.380859375
aF0.0284423828125
aF0.3450927734375
aF1.8907470703125
aF0.1370849609375
aF1.1583251953125
aF0.0263671875
aF0.5717775821685791
aF0.034423828125
aF0.775146484375
aF0.609130859375
aF0.5966796875
aF0.169189453125
aF1.38427734375
aF0.12744140625
aF0.137939453125
aF0.302490234375
aF2.134033203125
aF0.0478515625
aF1.15869140625
aF3.34814453125
aF2.8876953125
aF1.688018798828125
aF1.54248046875
aF0.5166015625
aF3.66357421875
aF2.8564453125
aF0.48681640625
aF2.32763671875
aF2.1387939453125
aF3.0087890625
aF5.7705078125
aF7.2099609375
aF8.357421875
aF1.3818359375
aF0.7138671875
aF3.0224609375
aF13.82421875
aF4.7138671875
aF4.8583984375
aF20.50390625
aF3.361328125
aF12.87939453125
aF0.40625
aF3.98046875
aF8.990234375
aF26.376953125
aF18.9375
aF20.76171875
aF3.2587890625
aF18.44140625
aF63.46484375
aF37.3828125
aF44.9462890625
aF30.330078125
aF19.064453125
aF2.5859375
aF0.72265625
aF9.73828125
aF5.6015625
aF114.546875
aF48.921875
aF70.5390625
aF75.0703125
aF3.4453125
aF53.2578125
aF66.4375
aF38.78125
aF36.1640625
aF227.484375
aF79.53125
aF85.03125
aF55.0234375
aF104.96875
aF87.765625
aF136.75390625
aF173.34375
aF74.1015625
aF140.8046875
aF153.28125
aF261.65625
aF421.6875
aF24.5
aF151.890625
aF604.15625
aF272.125
aF184.4375
aF408.75
aF7.15625
aF16.15625
aF319.5
aF602.5
aF472.8125
aF147.75
aF1014.75
aF464.3125
aF299.25
aF424.8125
aF620.0625
a.(lp1
F0
aF0
aF0
aF0
aF0
aF0
aF0
aF0
aF0
aF0
aF0
aF0
aF0
aF0
aF0
aF0
aF0
aF0
aF0
aF0
aF0
aF0
aF0
aF0
aF0
aF0
aF0
aF0
aF0
aF0
aF0
aF0
aF0
aF0
aF0
aF0
aF0
aF0
aF0
aF0
aF0
aF0
aF0
aF0
aF0
aF0
aF0
aF0
aF0
aF0
aF0
aF0
aF0
aF0
aF0
aF0
aF0
aF0
aF0
aF0
aF0
aF0
aF0
aF0
aF0
aF0
aF0
aF0
aF0
aF0
aF0
aF0
aF0
aF0
aF1.138533711753098e-13
aF0
aF0
aF0
aF3.0714319976254956e-13
aF1.5365486660812167e-13
aF5.6860072206177392e-13
aF5.6848969975931141e-13
aF2.2737367544323206e-13
aF4.8322457146809938e-13
aF2.2737367544323206e-13
aF1.1368683772161603e-13
aF2.7300384175532599e-13
aF0
aF3.8663516832571077e-13
aF6.1400884376894282e-13
aF7.0471406488081811e-13
aF7.5583983516480657e-13
aF6.5952798777857424e-13
aF7.9586337520254347e-13
aF1.7053580769754717e-12
aF7.5900397078498827e-13
aF1.4213075161251254e-12
aF2.3305801732931286e-12
aF1.0457745780456662e-12
aF2.2742918659446332e-13
aF3.1548652579260761e-12
aF7.531752999057062e-13
aF4.5474735088646412e-13
aF4.5474735088646412e-13
aF1.5916157281026244e-12
aF9.3786090005210099e-13
aF1.5349388426955102e-12
aF2.6831870059140783e-12
aF6.8212102632969618e-13
aF1.7279067066056087e-12
aF5.9685589803848416e-13
aF4.8204440439292281e-12
aF3.1720182036565348e-12
aF5.9575067101746978e-12
aF2.604527704619386e-12
aF2.2737367544323206e-12
aF1.8189894035458565e-12
aF5.9117710726752648e-12
aF4.3655634662798093e-12
aF3.0921654126103704e-12
aF6.1845251142500501e-12
aF3.3535951793339791e-12
aF6.5485172839885312e-12
aF6.2299054803816034e-12
aF4.5474735088646412e-12
aF5.547634573943583e-12
aF2.6487589899204524e-12
aF6.4803717947370387e-12
aF6.6508465401682315e-12
aF5.9118820949777273e-12
aF3.2741931388357063e-11
aF3.1468161409975437e-11
aF2.7284841053187847e-12
aF5.4569682106375694e-12
aF1.0914158465880064e-11
aF7.2759576141834259e-12
aF6.3164473651511344e-12
aF2.7648916489653173e-11
aF2.5102031564472327e-11
aF6.0937144219508358e-12
aF4.9112769406889356e-11
aF2.0954582513615669e-11
aF1.6270873537393982e-11
aF3.5424829736285801e-11
aF4.2928161025912459e-11
aF5.0204174151247116e-11
aF1.0686618256983138e-11
aF5.3568910418633206e-11
aF6.2300442582596816e-11
aF4.2073289296951089e-11
aF4.1836867303857161e-11
aF1.0040840381364546e-10
aF7.2759576141834259e-11
aF2.9103830456733704e-11
aF4.4819897793146879e-11
aF6.1645716309399745e-11
aF3.2287006401787721e-11
aF8.0035672533895763e-11
aF5.720729445712891e-11
aF5.4660875825618407e-11
aF8.9130480773746967e-11
aF8.5856488585278612e-11
aF2.0372681319713593e-10
aF6.8757655125040176e-11
aF1.0368261804671874e-10
aF1.1350503870133366e-10
aF1.6007123404548906e-10
aF1.4042561558014199e-10
aF9.4587310206506459e-11
aF8.8403040443552077e-11
aF1.8917484245761784e-10
aF2.211892669023996e-10
aF9.4587615517838231e-11
aF1.8626465370097379e-10
aF1.3096723705530167e-10
aF2.4483609584180499e-10
aF3.9108294380696407e-10
aF4.2200565264494116e-10
aF4.2928161025912459e-10
aF1.3460516035124215e-10
aF5.413312020863259e-10
aF7.3632666630629728e-10
aF3.0267982564780027e-10
aF6.9849198647276012e-10
aF2.9103830456733704e-10
aF2.4738261439338771e-10
aF2.9831442871497416e-10
aF9.094930364383913e-11
aF9.5460569449093261e-10
aF1.7462292722925099e-10
aF9.6770236268639565e-10
aF1.0943043915467853e-09
aF9.3714352944473944e-10
aF1.1801604582473147e-09
aF8.8184611834530355e-10
aF4.6566128730773926e-10
aF9.4994903609979531e-10
aF1.1641533570472262e-09
aF4.6566128730773926e-10
aF2.1056621668513741e-09
aF7.7125150710344315e-10
aF3.0267985895449101e-09
aF2.5960615879228044e-09
aF1.2014061412379817e-09
aF3.2223763990479882e-09
aF1.396983917434369e-09
aF2.8230716098143205e-09
aF8.381901728249375e-10
aF7.566994253416226e-10
aF2.2992026060819626e-09
aF2.1012967033593769e-09
aF3.3341348293358664e-09
aF5.3422989643170382e-09
aF1.5133992947724551e-09
aF9.0221879966989604e-10
aF6.5192581333306521e-09
aF4.4517218245054835e-09
aF1.9790606375913455e-09
aF4.1024760255581327e-09
aF3.0267985340337589e-09
aF3.8417056758000001e-09
aF7.45058045814595e-09
aF1.1362135449166644e-08
aF1.2866221255070087e-08
aF3.7485735071562942e-09
aF9.4296410124705687e-09
aF7.6368452672781473e-09
aF7.3108825882073351e-09
aF3.9581208866046325e-09
aF1.3038516266661304e-08
aF1.5366822259110791e-08
aF9.546056445319806e-09
aF1.2684613526214861e-08
aF6.053596901534064e-09
aF1.0076910444967169e-08
aF7.4505806524349794e-09
aF7.4505805969238281e-09
aF1.3271346827048447e-08
aF1.4901161193847656e-08
aF1.3038516155639002e-08
aF2.071261423486348e-08
aF5.2154064291570769e-08
aF4.4330954518390087e-08
aF3.3527612715023024e-08
aF3.5054981556426057e-08
aF3.7252902929107989e-08
aF3.3527612713912802e-08
aF1.7695128751160638e-08
aF2.7939677238464355e-08
aF3.0035152975838031e-08
aF8.1956386732695563e-08
aF5.9604644719879474e-08
aF5.2154064178466797e-08
aF4.217028617969909e-08
aF7.8231096573011527e-08
aF7.3369592595851074e-08
aF4.0978193421858933e-08
aF3.3527612658401651e-08
aF3.2130628657700555e-08
aF3.2596290278075202e-08
aF1.0877847672619012e-07
aF9.4063580202696784e-08
aF1.4677643743188361e-07
aF1.0337680583782927e-07
aF1.4007091506118563e-07
aF1.8067657844844653e-07
aF1.013278953243546e-07
aF9.1269612367828046e-08
aF5.9604644719879474e-08
aF1.78813934187394e-07
aF2.6822089986167088e-07
aF1.3709068310552298e-07
aF2.1234154723437371e-07
aF8.9406967163085938e-08
aF1.7881393432617188e-07
aF4.1499733943739514e-07
aF2.2158026674601317e-07
aF3.4570693835389577e-07
aF2.1792948259879985e-07
aF1.8626451508962916e-07
aF2.5704503076040552e-07
aF5.2452087797361106e-07
aF1.7881393432617188e-07
aF7.7486038213558928e-07
aF6.5565109252929688e-07
aF5.3644180308953793e-07
aF3.3229589472272283e-07
aF6.6757201805378585e-07
aF5.7280063601172773e-07
aF3.5762786865234375e-07
aF7.4505805991442742e-07
aF7.3432922181870808e-07
aF1.6108155152294578e-06
aF7.5399875626436241e-07
aF5.960464479204397e-07
aF1.9788741839610324e-06
aF1.7881393432617188e-07
aF1.3247132375493464e-06
aF8.6426734940969752e-07
aF5.9604644775390625e-07
aF1.9073486328125e-06
aF1.192092895674346e-06
aF3.0994416919283287e-06
aF6.9439411144456291e-07
aF2.4878978667208784e-06
aF3.3378598893962775e-06
aF7.152557373046875e-07
aF2.8431414989538162e-06
aF7.152557373046875e-07
aF1.8262863086537795e-06
aF6.0367583939180403e-06
aF6.2584877014160156e-07
aF5.7220458985762779e-06
aF2.9563899263007622e-06
aF4.8577784925174505e-06
aF1.555681200027248e-06
aF3.379583399826247e-06
aF1.5258789064387379e-06
aF9.5367431640625e-07
aF2.3841857908490915e-06
aF8.3923332567792386e-06
aF8.4996243911894524e-06
aF8.106231689453125e-06
aF8.6784362790137675e-06
aF5.8650970456319841e-06
aF3.3378601072830971e-06
aF4.8875808717485647e-06
aF5.6624414808970069e-06
aF3.0136107234401965e-06
aF5.9127807616188299e-06
aF1.8548977095744767e-05
aF9.5367431640625e-06
aF4.196166992043171e-06
aF1.2226104270846028e-05
aF2.4795532226618011e-05
aF3.6430323962222122e-05
aF9.5367431640625e-06
aF6.5803527832253295e-06
aF3.18050384524593e-05
aF1.8691998266207044e-05
aF1.1444091796930511e-05
aF9.0599060056373304e-06
aF1.9073486328291533e-05
aF2.4414091603652822e-05
aF6.7710876465065795e-05
aF2.6130676269342513e-05
aF2.0647048950006575e-05
aF3.7384018651220874e-05
aF9.5367431640625e-06
aF3.0517578125111022e-05
aF5.9509277343938738e-05
aF6.3896179199385283e-05
aF5.4264068603704363e-05
aF8.3923339843805511e-05
aF6.2255851924652994e-05
aF3.1280517578302637e-05
aF5.0353910774736388e-05
aF2.5272369384765625e-05
aF9.2201234772965046e-05
aF9.7751617431612869e-05
aF0.0002021778782363981
aF4.57763671875e-05
aF0.00019531132654804217
aF0.00028686616569767454
aF0.00016994473407966337
aF0.00017089843750015544
aF0.0002307891845703125
aF0.00016708374023410855
aF5.1498413085826478e-05
aF7.82012939453125e-05
aF4.00543212890625e-05
aF0.0003646847233259472
aF0.0001709014177324053
aF0.00025665271282487856
aF0.00027160540225673602
aF0.00016021728515636102
aF9.1552734375e-05
aF0.00047607265416627076
aF0.00038909912109352796
aF0.00032539201206438495
aF0.00058746337890608347
aF0.00072860717773454153
aF0.00066528245806675153
aF0.00024414062499994449
aF0.0006835937499999889
aF0.0013000637292863715
aF0.0012283256659140762
aF0.00019836425781238898
aF0.00027084350585948602
aF0.00075912326628875255
aF0.00076293945312511102
aF0.00042724609374994449
aF0.00048828124999994449
aF0.00046508622173579983
aF0.0011382818251147397
aF0.000732421875
aF0.00063473582267780109
aF0.00056152343750012215
aF0.00074920654296888327
aF0.0021010408294373506
aF0.0037166596390081686
aF0.0012694740407146743
aF0.00061035156249986122
aF0.00146484375
aF0.0031552172293771441
aF0.0015869140624998612
aF0.00078124999999990008
aF0.0036592960357667015
aF0.0032958984375000555
aF0.0008544921875
aF0.0042773132443383096
aF0.0024414062500000555
aF0.0022958755493165508
aF0.0043945312499999445
aF0.00146484375
aF0.003648651134962988
aF0.0031738281250001388
aF0.001953125
aF0.0041369323849633211
aF0.0037105562164471695
aF0.001953125
aF0.0031738281250000555
aF0.0059814453125
aF0.018554687500000222
aF0.0048828125
aF0.010437011718750056
aF0.0096435546874998612
aF0.004882812500000111
aF0.0082012176513670092
aF0.011523437500000011
aF0.015234375000000189
aF0.0097656250000000555
aF0.008300781250000111
aF0.015234375000000189
aF0.019799804687500189
aF0.012963867187499978
aF0.013671875
aF0.023886741602476641
aF0.011718750000000056
aF0.008544921875000111
aF0.025390624999999861
aF0.029663180933852062
aF0.02392578125
aF0.057000732421874908
aF0.024707031250000157
aF0.060964965820312342
aF0.020263671874999778
aF0.035888671875
aF0.016113281250000056
aF0.03125
aF0.031249999999999944
aF0.078125000000000056
aF0.03125
aF0.13085937499999989
aF0.011230468749999944
aF0.03125
aF0.06105006868121432
aF0.10937500000000006
aF0.0234375
aF0.078019573907956552
aF0.046875
aF0.16877403846153843
aF0.101318359375
aF0.072363281249999814
aF0.061523437500000056
aF0.11035156250000006
aF0.14110725308641964
aF0.13659254807692289
aF0.098273533950617442
aF0.098828124999999989
aF0.62402343750000022
aF0.21875000000000017
aF0.40788352272727285
aF0.15331554878048798
aF0.33886718750000006
aF0.1957031250000002
aF0.15625
aF0.12890625000000006
aF0.17187499999999983
aF0.25585937500000011
aF0.44921874999999994
aF0.63327205882352922
aF0.41753472222222254
aF0.62671130952380938
aF0.125
aF0.703125
aF0.22265624999999983
aF0.2234374999999999
aF0.86250000000000004
aF0.1953125
aF1.0625000000000002
aF1.2812500000000002
aF0.9772727272727274
aF1.2681818181818181
aF1.8125000000000002
aF0.40625000000000017
aF1.6062500000000004
aF1.7656250000000002
aF1.1328124999999998
aF1.125
aF1.4375
aF0.65625
aF2
aF0.84375
aF2.4781249999999999
aF0.78125000000000022
aF1.25
aF0.93749999999999978
aF2.8200000000000003
aF1.2
aF5.4312500000000004
aF3.5
aF2.5
aF9.25
aF2.375
aF3
aF2.7545454545454549
aF4.2562499999999996
aF2.5053571428571431
aF2.8000000000000003
a.