(lp1
F1.1102230246251565e-16
aF0
aF0
aF1.1102230246251565e-16
aF2.2204460492503131e-16
aF2.7755575615628914e-16
aF5.5511151231257827e-16
aF2.2204460492503131e-16
aF1.1102230246251565e-16
aF1.1102230246251565e-16
aF2.2204460492503131e-16
aF6.6613381477509392e-16
aF6.6613381477509392e-16
aF2.2204460492503131e-16
aF6.6613381477509392e-16
aF0
aF0
aF8.8817841970012523e-16
aF9.8813129168249309e-324
aF0
aF1.3322676295501878e-15
aF1.1102230246251565e-15
aF4.4408920985006262e-16
aF8.8817841970012523e-16
aF1.3322676295501878e-15
aF4.4408920985006262e-16
aF1.1102230246251565e-15
aF4.4408920985006262e-16
aF8.8817841970012523e-16
aF1.3322676295501878e-15
aF0
aF0
aF1.3322676295501878e-15
aF2.6645352591003757e-15
aF3.5527136788005009e-15
aF0
aF2.6645352591003757e-15
aF3.5527136788005009e-15
aF0
aF0
aF2.6645352591003757e-15
aF0
aF5.3290705182007514e-15
aF3.5527136788005009e-15
aF1.7763568394002505e-15
aF5.3290705182007514e-15
aF3.5527136788005009e-15
aF3.5527136788005009e-15
aF7.9050503334599447e-323
aF1.7763568394002505e-15
aF7.1054273576010019e-15
aF3.5527136788005009e-15
aF3.5527136788005009e-15
aF3.5527136788005009e-15
aF3.5527136788005009e-15
aF0
aF1.5987211554602254e-14
aF0
aF7.1054273576010019e-15
aF1.0658141036401503e-14
aF7.1054273576010019e-15
aF7.1054273576010019e-15
aF0
aF1.7763568394002505e-14
aF1.4210854715202004e-14
aF2.4868995751603507e-14
aF7.1054273576010019e-15
aF7.1054273576010019e-15
aF2.1316282072803006e-14
aF2.1316282072803006e-14
aF4.2632564145606011e-14
aF2.8421709430404007e-14
aF1.4210854715202004e-14
aF0
aF2.1316282072803006e-14
aF7.1054273576010019e-14
aF2.8421709430404007e-14
aF1.4210854715202004e-14
aF7.1054273576010019e-15
aF6.3240402667679558e-322
aF0
aF7.1054273576010019e-14
aF2.8421709430404007e-14
aF2.8421709430404007e-14
aF2.8421709430404007e-14
aF2.8421709430404007e-14
aF2.8421709430404007e-14
aF5.6843418860808015e-14
aF2.8421709430404007e-14
aF0
aF8.5265128291212022e-14
aF5.6843418860808015e-14
aF1.1368683772161603e-13
aF0
aF0
aF0
aF2.2737367544323206e-13
aF1.1368683772161603e-13
aF1.1368683772161603e-13
aF2.2737367544323206e-13
aF1.1368683772161603e-13
aF1.1368683772161603e-13
aF1.1368683772161603e-13
aF2.2737367544323206e-13
aF1.1368683772161603e-13
aF0
aF1.1368683772161603e-13
aF0
aF2.8421709430404007e-13
aF3.4106051316484809e-13
aF4.5474735088646412e-13
aF2.2737367544323206e-13
aF2.2737367544323206e-13
aF3.4106051316484809e-13
aF4.5474735088646412e-13
aF4.5474735088646412e-13
aF0
aF2.2737367544323206e-13
aF0
aF2.2737367544323206e-13
aF0
aF6.8212102632969618e-13
aF4.5474735088646412e-13
aF0
aF0
aF1.3642420526593924e-12
aF4.5474735088646412e-13
aF6.8212102632969618e-13
aF1.1368683772161603e-12
aF4.5474735088646412e-13
aF9.0949470177292824e-13
aF9.0949470177292824e-13
aF9.0949470177292824e-13
aF0
aF1.8189894035458565e-12
aF0
aF2.7284841053187847e-12
aF9.0949470177292824e-13
aF9.0949470177292824e-13
aF9.0949470177292824e-13
aF3.637978807091713e-12
aF1.8189894035458565e-12
aF3.637978807091713e-12
aF0
aF1.8189894035458565e-12
aF3.637978807091713e-12
aF0
aF4.5474735088646412e-12
aF0
aF3.637978807091713e-12
aF7.2759576141834259e-12
aF7.2759576141834259e-12
aF3.637978807091713e-12
aF5.4569682106375694e-12
aF3.637978807091713e-12
aF3.637978807091713e-12
aF0
aF3.637978807091713e-12
aF7.2759576141834259e-12
aF0
aF7.2759576141834259e-12
aF1.4551915228366852e-11
aF1.4551915228366852e-11
aF1.4551915228366852e-11
aF7.2759576141834259e-12
aF7.2759576141834259e-12
aF1.4551915228366852e-11
aF2.1827872842550278e-11
aF7.2759576141834259e-12
aF3.637978807091713e-11
aF1.4551915228366852e-11
aF1.4551915228366852e-11
aF2.9103830456733704e-11
aF2.9103830456733704e-11
aF2.9103830456733704e-11
aF7.2759576141834259e-11
aF2.9103830456733704e-11
aF5.0931703299283981e-11
aF5.0931703299283981e-11
aF1.4551915228366852e-11
aF4.3655745685100555e-11
aF0
aF5.8207660913467407e-11
aF2.9103830456733704e-11
aF0
aF0
aF8.7311491370201111e-11
aF0
aF2.9103830456733704e-11
aF0
aF1.7462298274040222e-10
aF5.8207660913467407e-11
aF2.5903268932681547e-318
aF2.5903268932681547e-318
aF1.7462298274040222e-10
aF1.1641532182693481e-10
aF0
aF0
aF1.4551915228366852e-10
aF5.8207660913467407e-11
aF2.3283064365386963e-10
aF1.1641532182693481e-10
aF1.1641532182693481e-10
aF1.1641532182693481e-10
aF0
aF0
aF0
aF2.3283064365386963e-10
aF0
aF1.1641532182693481e-10
aF6.9849193096160889e-10
aF4.6566128730773926e-10
aF0
aF0
aF2.3283064365386963e-10
aF2.3283064365386963e-10
aF2.3283064365386963e-10
aF6.9849193096160889e-10
aF0
aF4.6566128730773926e-10
aF1.3969838619232178e-09
aF0
aF1.3969838619232178e-09
aF2.3283064365386963e-10
aF9.3132257461547852e-10
aF1.3969838619232178e-09
aF9.3132257461547852e-10
aF0
aF1.3969838619232178e-09
aF1.862645149230957e-09
aF2.7939677238464355e-09
aF3.7252902984619141e-09
aF1.862645149230957e-09
aF2.7939677238464355e-09
aF4.6566128730773926e-10
aF1.862645149230957e-09
aF1.862645149230957e-09
aF9.3132257461547852e-10
aF2.7939677238464355e-09
aF9.3132257461547852e-10
aF1.862645149230957e-09
aF0
aF0
aF5.5879354476928711e-09
aF2.7939677238464355e-09
aF1.862645149230957e-09
aF9.3132257461547852e-10
aF1.862645149230957e-09
aF1.862645149230957e-09
aF0
aF3.7252902984619141e-09
aF7.4505805969238281e-09
aF1.3038516044616699e-08
aF0
aF5.5879354476928711e-09
aF3.7252902984619141e-09
aF0
aF0
aF0
aF7.4505805969238281e-09
aF7.4505805969238281e-09
aF2.6077032089233398e-08
aF7.4505805969238281e-09
aF1.1175870895385742e-08
aF0
aF2.2351741790771484e-08
aF2.2351741790771484e-08
aF7.4505805969238281e-09
aF7.4505805969238281e-09
aF0
aF3.7252902984619141e-08
aF1.4901161193847656e-08
aF0
aF1.4901161193847656e-08
aF1.4901161193847656e-08
aF2.9802322387695312e-08
aF2.9802322387695312e-08
aF1.4901161193847656e-08
aF2.9802322387695312e-08
aF1.4901161193847656e-08
aF2.9802322387695312e-08
aF2.9802322387695312e-08
aF0
aF2.9802322387695312e-08
aF5.9604644775390625e-08
aF2.9802322387695312e-08
aF7.4505805969238281e-08
aF5.9604644775390625e-08
aF0
aF2.9802322387695312e-08
aF1.1920928955078125e-07
aF5.9604644775390625e-08
aF1.1920928955078125e-07
aF1.7881393432617188e-07
aF5.9604644775390625e-08
aF1.1920928955078125e-07
aF2.6524947387065904e-315
aF1.1920928955078125e-07
aF2.384185791015625e-07
aF5.9604644775390625e-08
aF2.384185791015625e-07
aF1.1920928955078125e-07
aF0
aF3.5762786865234375e-07
aF1.7881393432617188e-07
aF1.1920928955078125e-07
aF0
aF2.384185791015625e-07
aF2.384185791015625e-07
aF3.5762786865234375e-07
aF4.76837158203125e-07
aF0
aF8.3446502685546875e-07
aF0
aF3.5762786865234375e-07
aF1.0609978954826362e-314
aF2.384185791015625e-07
aF1.1920928955078125e-07
aF4.76837158203125e-07
aF4.76837158203125e-07
aF0
aF1.430511474609375e-06
aF0
aF7.152557373046875e-07
aF4.76837158203125e-07
aF4.76837158203125e-07
aF4.76837158203125e-07
aF4.76837158203125e-07
aF4.76837158203125e-07
aF1.430511474609375e-06
aF1.430511474609375e-06
aF0
aF0
aF4.2439915819305446e-314
aF3.814697265625e-06
aF1.9073486328125e-06
aF2.86102294921875e-06
aF9.5367431640625e-07
aF9.5367431640625e-07
aF9.5367431640625e-07
aF9.5367431640625e-06
aF5.7220458984375e-06
aF3.814697265625e-06
aF0
aF1.9073486328125e-06
aF3.814697265625e-06
aF1.9073486328125e-06
aF7.62939453125e-06
aF1.9073486328125e-06
aF3.814697265625e-06
aF3.814697265625e-06
aF7.62939453125e-06
aF1.52587890625e-05
aF7.62939453125e-06
aF7.62939453125e-06
aF5.7220458984375e-06
aF3.814697265625e-06
aF7.62939453125e-06
aF0
aF3.814697265625e-06
aF0
aF7.62939453125e-06
aF7.62939453125e-06
aF0
aF1.1444091796875e-05
aF0
aF7.62939453125e-06
aF0
aF0
aF2.6702880859375e-05
aF0
aF1.52587890625e-05
aF1.52587890625e-05
aF0
aF3.0517578125e-05
aF1.52587890625e-05
aF0
aF0
aF1.52587890625e-05
aF1.52587890625e-05
aF6.103515625e-05
aF6.103515625e-05
aF7.62939453125e-05
aF9.1552734375e-05
aF9.1552734375e-05
aF6.103515625e-05
aF3.0517578125e-05
aF6.103515625e-05
aF0.0001220703125
aF6.103515625e-05
aF0
aF0.0001220703125
aF0
aF0.00018310546875
aF2.7161546124355486e-312
aF6.103515625e-05
aF0.000152587890625
aF0.000152587890625
aF6.103515625e-05
aF0
aF0.000244140625
aF0
aF0.00042724609375
aF0
aF0.00030517578125
aF0
aF0.0001220703125
aF0.00018310546875
aF0.000244140625
aF0.0003662109375
aF0.000732421875
aF0
aF0.0009765625
aF0.0008544921875
aF0.0009765625
aF0.000244140625
aF0.00048828125
aF0
aF0.000244140625
aF0.0003662109375
aF0.0009765625
aF0
aF0.0009765625
aF0.0009765625
aF0.0009765625
aF0.00048828125
aF0.00048828125
aF0.0009765625
aF0.000244140625
aF0.0009765625
aF0.0029296875
aF0.001953125
aF0.00146484375
aF0.00390625
aF0.0009765625
aF0.0009765625
aF0.0009765625
aF0.0009765625
aF0.00390625
aF0.0009765625
aF0.001953125
aF0.001953125
aF0.0009765625
aF0.00390625
aF0.0048828125
aF0
aF0.0009765625
aF0.00390625
aF0
aF0.00390625
aF0.0078125
aF0.00390625
aF0
aF0.00390625
aF0
aF0.00390625
aF0.01171875
aF0.00390625
aF0.015625
aF0
aF0.015625
aF0.015625
aF0.00390625
aF0.0078125
aF0.0078125
aF0
aF0
aF0.0078125
aF0
aF0.0234375
aF0.015625
aF0
aF0.015625
aF0.03125
aF0.015625
aF0.0234375
aF0.015625
aF0.015625
aF0.015625
aF0.015625
aF0.03125
aF0.078125
aF0.0625
aF0.03125
aF0.109375
aF0.03125
aF0.0625
aF0.0625
aF0.03125
aF0
aF0.0625
aF0.03125
aF0.0625
aF0.0625
aF0.125
aF0
aF0.1875
aF0.21875
aF0.125
aF0.0625
aF0
aF0.3125
aF0.25
aF0.125
aF0.125
aF0.25
aF0
aF0.25
aF0.25
aF0.125
aF0.25
aF0.5
aF0.125
aF0.25
aF0.75
aF0.75
aF0.25
aF0.5
aF0.5
aF0.25
a.(lp1
F1.1102230246251565e-16
aF0
aF0
aF1.1102230246251565e-16
aF2.2204460492503131e-16
aF2.7755575615628914e-16
aF5.5511151231257827e-16
aF2.2204460492503131e-16
aF1.1102230246251565e-16
aF1.1102230246251565e-16
aF2.2204460492503131e-16
aF6.6613381477509392e-16
aF6.6613381477509392e-16
aF2.2204460492503131e-16
aF6.6613381477509392e-16
aF0
aF0
aF8.8817841970012523e-16
aF9.8813129168249309e-324
aF0
aF1.3322676295501878e-15
aF1.1102230246251565e-15
aF4.4408920985006262e-16
aF8.8817841970012523e-16
aF1.3322676295501878e-15
aF4.4408920985006262e-16
aF1.1102230246251565e-15
aF4.4408920985006262e-16
aF8.8817841970012523e-16
aF1.3322676295501878e-15
aF0
aF0
aF1.3322676295501878e-15
aF2.6645352591003757e-15
aF3.5527136788005009e-15
aF0
aF2.6645352591003757e-15
aF3.5527136788005009e-15
aF0
aF0
aF2.6645352591003757e-15
aF0
aF5.3290705182007514e-15
aF3.5527136788005009e-15
aF1.7763568394002505e-15
aF5.3290705182007514e-15
aF3.5527136788005009e-15
aF3.5527136788005009e-15
aF7.9050503334599447e-323
aF1.7763568394002505e-15
aF7.1054273576010019e-15
aF3.5527136788005009e-15
aF3.5527136788005009e-15
aF3.5527136788005009e-15
aF3.5527136788005009e-15
aF0
aF1.5987211554602254e-14
aF0
aF7.1054273576010019e-15
aF1.0658141036401503e-14
aF7.1054273576010019e-15
aF7.1054273576010019e-15
aF0
aF1.7763568394002505e-14
aF1.4210854715202004e-14
aF2.4868995751603507e-14
aF7.1054273576010019e-15
aF7.1054273576010019e-15
aF2.1316282072803006e-14
aF2.1316282072803006e-14
aF4.2632564145606011e-14
aF2.8421709430404007e-14
aF1.4210854715202004e-14
aF0
aF2.1316282072803006e-14
aF7.1054273576010019e-14
aF2.8421709430404007e-14
aF1.4210854715202004e-14
aF7.1054273576010019e-15
aF6.3240402667679558e-322
aF0
aF7.1054273576010019e-14
aF2.8421709430404007e-14
aF2.8421709430404007e-14
aF2.8421709430404007e-14
aF2.8421709430404007e-14
aF2.8421709430404007e-14
aF5.6843418860808015e-14
aF2.8421709430404007e-14
aF0
aF8.5265128291212022e-14
aF5.6843418860808015e-14
aF1.1368683772161603e-13
aF0
aF0
aF0
aF2.2737367544323206e-13
aF1.1368683772161603e-13
aF1.1368683772161603e-13
aF2.2737367544323206e-13
aF1.1368683772161603e-13
aF1.1368683772161603e-13
aF1.1368683772161603e-13
aF2.2737367544323206e-13
aF1.1368683772161603e-13
aF0
aF1.1368683772161603e-13
aF0
aF2.8421709430404007e-13
aF3.4106051316484809e-13
aF4.5474735088646412e-13
aF2.2737367544323206e-13
aF2.2737367544323206e-13
aF3.4106051316484809e-13
aF4.5474735088646412e-13
aF4.5474735088646412e-13
aF0
aF2.2737367544323206e-13
aF0
aF2.2737367544323206e-13
aF0
aF6.8212102632969618e-13
aF4.5474735088646412e-13
aF0
aF0
aF1.3642420526593924e-12
aF4.5474735088646412e-13
aF6.8212102632969618e-13
aF1.1368683772161603e-12
aF4.5474735088646412e-13
aF9.0949470177292824e-13
aF9.0949470177292824e-13
aF9.0949470177292824e-13
aF0
aF1.8189894035458565e-12
aF0
aF2.7284841053187847e-12
aF9.0949470177292824e-13
aF9.0949470177292824e-13
aF9.0949470177292824e-13
aF3.637978807091713e-12
aF1.8189894035458565e-12
aF3.637978807091713e-12
aF0
aF1.8189894035458565e-12
aF3.637978807091713e-12
aF0
aF4.5474735088646412e-12
aF0
aF3.637978807091713e-12
aF7.2759576141834259e-12
aF7.2759576141834259e-12
aF3.637978807091713e-12
aF5.4569682106375694e-12
aF3.637978807091713e-12
aF3.637978807091713e-12
aF0
aF3.637978807091713e-12
aF7.2759576141834259e-12
aF0
aF7.2759576141834259e-12
aF1.4551915228366852e-11
aF1.4551915228366852e-11
aF1.4551915228366852e-11
aF7.2759576141834259e-12
aF7.2759576141834259e-12
aF1.4551915228366852e-11
aF2.1827872842550278e-11
aF7.2759576141834259e-12
aF3.637978807091713e-11
aF1.4551915228366852e-11
aF1.4551915228366852e-11
aF2.9103830456733704e-11
aF2.9103830456733704e-11
aF2.9103830456733704e-11
aF7.2759576141834259e-11
aF2.9103830456733704e-11
aF5.0931703299283981e-11
aF5.0931703299283981e-11
aF1.4551915228366852e-11
aF4.3655745685100555e-11
aF0
aF5.8207660913467407e-11
aF2.9103830456733704e-11
aF0
aF0
aF8.7311491370201111e-11
aF0
aF2.9103830456733704e-11
aF0
aF1.7462298274040222e-10
aF5.8207660913467407e-11
aF2.5903268932681547e-318
aF2.5903268932681547e-318
aF1.7462298274040222e-10
aF1.1641532182693481e-10
aF0
aF0
aF1.4551915228366852e-10
aF5.8207660913467407e-11
aF2.3283064365386963e-10
aF1.1641532182693481e-10
aF1.1641532182693481e-10
aF1.1641532182693481e-10
aF0
aF0
aF0
aF2.3283064365386963e-10
aF0
aF1.1641532182693481e-10
aF6.9849193096160889e-10
aF4.6566128730773926e-10
aF0
aF0
aF2.3283064365386963e-10
aF2.3283064365386963e-10
aF2.3283064365386963e-10
aF6.9849193096160889e-10
aF0
aF4.6566128730773926e-10
aF1.3969838619232178e-09
aF0
aF1.3969838619232178e-09
aF2.3283064365386963e-10
aF9.3132257461547852e-10
aF1.3969838619232178e-09
aF9.3132257461547852e-10
aF0
aF1.3969838619232178e-09
aF1.862645149230957e-09
aF2.7939677238464355e-09
aF3.7252902984619141e-09
aF1.862645149230957e-09
aF2.7939677238464355e-09
aF4.6566128730773926e-10
aF1.862645149230957e-09
aF1.862645149230957e-09
aF9.3132257461547852e-10
aF2.7939677238464355e-09
aF9.3132257461547852e-10
aF1.862645149230957e-09
aF0
aF0
aF5.5879354476928711e-09
aF2.7939677238464355e-09
aF1.862645149230957e-09
aF9.3132257461547852e-10
aF1.862645149230957e-09
aF1.862645149230957e-09
aF0
aF3.7252902984619141e-09
aF7.4505805969238281e-09
aF1.3038516044616699e-08
aF0
aF5.5879354476928711e-09
aF3.7252902984619141e-09
aF0
aF0
aF0
aF7.4505805969238281e-09
aF7.4505805969238281e-09
aF2.6077032089233398e-08
aF7.4505805969238281e-09
aF1.1175870895385742e-08
aF0
aF2.2351741790771484e-08
aF2.2351741790771484e-08
aF7.4505805969238281e-09
aF7.4505805969238281e-09
aF0
aF3.7252902984619141e-08
aF1.4901161193847656e-08
aF0
aF1.4901161193847656e-08
aF1.4901161193847656e-08
aF2.9802322387695312e-08
aF2.9802322387695312e-08
aF1.4901161193847656e-08
aF2.9802322387695312e-08
aF1.4901161193847656e-08
aF2.9802322387695312e-08
aF2.9802322387695312e-08
aF0
aF2.9802322387695312e-08
aF5.9604644775390625e-08
aF2.9802322387695312e-08
aF7.4505805969238281e-08
aF5.9604644775390625e-08
aF0
aF2.9802322387695312e-08
aF1.1920928955078125e-07
aF5.9604644775390625e-08
aF1.1920928955078125e-07
aF1.7881393432617188e-07
aF5.9604644775390625e-08
aF1.1920928955078125e-07
aF2.6524947387065904e-315
aF1.1920928955078125e-07
aF2.384185791015625e-07
aF5.9604644775390625e-08
aF2.384185791015625e-07
aF1.1920928955078125e-07
aF0
aF3.5762786865234375e-07
aF1.7881393432617188e-07
aF1.1920928955078125e-07
aF0
aF2.384185791015625e-07
aF2.384185791015625e-07
aF3.5762786865234375e-07
aF4.76837158203125e-07
aF0
aF8.3446502685546875e-07
aF0
aF3.5762786865234375e-07
aF1.0609978954826362e-314
aF2.384185791015625e-07
aF1.1920928955078125e-07
aF4.76837158203125e-07
aF4.76837158203125e-07
aF0
aF1.430511474609375e-06
aF0
aF7.152557373046875e-07
aF4.76837158203125e-07
aF4.76837158203125e-07
aF4.76837158203125e-07
aF4.76837158203125e-07
aF4.76837158203125e-07
aF1.430511474609375e-06
aF1.430511474609375e-06
aF0
aF0
aF4.2439915819305446e-314
aF3.814697265625e-06
aF1.9073486328125e-06
aF2.86102294921875e-06
aF9.5367431640625e-07
aF9.5367431640625e-07
aF9.5367431640625e-07
aF9.5367431640625e-06
aF5.7220458984375e-06
aF3.814697265625e-06
aF0
aF1.9073486328125e-06
aF3.814697265625e-06
aF1.9073486328125e-06
aF7.62939453125e-06
aF1.9073486328125e-06
aF3.814697265625e-06
aF3.814697265625e-06
aF7.62939453125e-06
aF1.52587890625e-05
aF7.62939453125e-06
aF7.62939453125e-06
aF5.7220458984375e-06
aF3.814697265625e-06
aF7.62939453125e-06
aF0
aF3.814697265625e-06
aF0
aF7.62939453125e-06
aF7.62939453125e-06
aF0
aF1.1444091796875e-05
aF0
aF7.62939453125e-06
aF0
aF0
aF2.6702880859375e-05
aF0
aF1.52587890625e-05
aF1.52587890625e-05
aF0
aF3.0517578125e-05
aF1.52587890625e-05
aF0
aF0
aF1.52587890625e-05
aF1.52587890625e-05
aF6.103515625e-05
aF6.103515625e-05
aF7.62939453125e-05
aF9.1552734375e-05
aF9.1552734375e-05
aF6.103515625e-05
aF3.0517578125e-05
aF6.103515625e-05
aF0.0001220703125
aF6.103515625e-05
aF0
aF0.0001220703125
aF0
aF0.00018310546875
aF2.7161546124355486e-312
aF6.103515625e-05
aF0.000152587890625
aF0.000152587890625
aF6.103515625e-05
aF0
aF0.000244140625
aF0
aF0.00042724609375
aF0
aF0.00030517578125
aF0
aF0.0001220703125
aF0.00018310546875
aF0.000244140625
aF0.0003662109375
aF0.000732421875
aF0
aF0.0009765625
aF0.0008544921875
aF0.0009765625
aF0.000244140625
aF0.00048828125
aF0
aF0.000244140625
aF0.0003662109375
aF0.0009765625
aF0
aF0.0009765625
aF0.0009765625
aF0.0009765625
aF0.00048828125
aF0.00048828125
aF0.0009765625
aF0.000244140625
aF0.0009765625
aF0.0029296875
aF0.001953125
aF0.00146484375
aF0.00390625
aF0.0009765625
aF0.0009765625
aF0.0009765625
aF0.0009765625
aF0.00390625
aF0.0009765625
aF0.001953125
aF0.001953125
aF0.0009765625
aF0.00390625
aF0.0048828125
aF0
aF0.0009765625
aF0.00390625
aF0
aF0.00390625
aF0.0078125
aF0.00390625
aF0
aF0.00390625
aF0
aF0.00390625
aF0.01171875
aF0.00390625
aF0.015625
aF0
aF0.015625
aF0.015625
aF0.00390625
aF0.0078125
aF0.0078125
aF0
aF0
aF0.0078125
aF0
aF0.0234375
aF0.015625
aF0
aF0.015625
aF0.03125
aF0.015625
aF0.0234375
aF0.015625
aF0.015625
aF0.015625
aF0.015625
aF0.03125
aF0.078125
aF0.0625
aF0.03125
aF0.109375
aF0.03125
aF0.0625
aF0.0625
aF0.03125
aF0
aF0.0625
aF0.03125
aF0.0625
aF0.0625
aF0.125
aF0
aF0.1875
aF0.21875
aF0.125
aF0.0625
aF0
aF0.3125
aF0.25
aF0.125
aF0.125
aF0.25
aF0
aF0.25
aF0.25
aF0.125
aF0.25
aF0.5
aF0.125
aF0.25
aF0.75
aF0.75
aF0.25
aF0.5
aF0.5
aF0.25
a.(lp1
F0
aF0
aF0
aF0
aF0
aF0
aF0
aF0
aF0
aF0
aF0
aF0
aF0
aF0
aF0
aF0
aF0
aF0
aF0
aF0
aF0
aF0
aF0
aF0
aF0
aF0
aF0
aF0
aF0
aF0
aF0
aF0
aF0
aF0
aF0
aF0
aF0
aF0
aF0
aF0
aF0
aF0
aF0
aF0
aF0
aF0
aF0
aF0
aF0
aF0
aF0
aF0
aF0
aF0
aF0
aF0
aF0
aF0
aF0
aF0
aF0
aF0
aF0
aF0
aF0
aF0
aF0
aF0
aF0
aF0
aF0
aF0
aF0
aF0
aF0
aF0
aF0
aF0
aF0
aF0
aF0
aF0
aF0
aF0
aF0
aF0
aF0
aF0
aF0
aF0
aF0
aF0
aF0
aF0
aF0
aF0
aF0
aF0
aF0
aF0
aF0
aF0
aF0
aF0
aF0
aF0
aF0
aF0
aF0
aF0
aF0
aF0
aF0
aF0
aF0
aF0
aF0
aF0
aF0
aF0
aF0
aF0
aF0
aF0
aF0
aF0
aF0
aF0
aF0
aF0
aF0
aF0
aF0
aF0
aF0
aF0
aF0
aF0
aF0
aF0
aF0
aF0
aF0
aF0
aF0
aF0
aF0
aF0
aF0
aF0
aF0
aF0
aF0
aF0
aF0
aF0
aF0
aF0
aF0
aF0
aF0
aF0
aF0
aF0
aF0
aF0
aF0
aF0
aF0
aF0
aF0
aF0
aF0
aF0
aF0
aF0
aF0
aF0
aF0
aF0
aF0
aF0
aF0
aF0
aF0
aF0
aF0
aF0
aF0
aF0
aF0
aF0
aF0
aF0
aF0
aF0
aF0
aF0
aF0
aF0
aF0
aF0
aF0
aF0
aF0
aF0
aF0
aF0
aF0
aF0
aF0
aF0
aF0
aF0
aF0
aF0
aF0
aF0
aF0
aF0
aF0
aF0
aF0
aF0
aF0
aF0
aF0
aF0
aF0
aF0
aF0
aF0
aF0
aF0
aF0
aF0
aF0
aF0
aF0
aF0
aF0
aF0
aF0
aF0
aF0
aF0
aF0
aF0
aF0
aF0
aF0
aF0
aF0
aF0
aF0
aF0
aF0
aF0
aF0
aF0
aF0
aF0
aF0
aF0
aF0
aF0
aF0
aF0
aF0
aF0
aF0
aF0
aF0
aF0
aF0
aF0
aF0
aF0
aF0
aF0
aF0
aF0
aF0
aF0
aF0
aF0
aF0
aF0
aF0
aF0
aF0
aF0
aF0
aF0
aF0
aF0
aF0
aF0
aF0
aF0
aF0
aF0
aF0
aF0
aF0
aF0
aF0
aF0
aF0
aF0
aF0
aF0
aF0
aF0
aF0
aF0
aF0
aF0
aF0
aF0
aF0
aF0
aF0
aF0
aF0
aF0
aF0
aF0
aF0
aF0
aF0
aF0
aF0
aF0
aF0
aF0
aF0
aF0
aF0
aF0
aF0
aF0
aF0
aF0
aF0
aF0
aF0
aF0
aF0
aF0
aF0
aF0
aF0
aF0
aF0
aF0
aF0
aF0
aF0
aF0
aF0
aF0
aF0
aF0
aF0
aF0
aF0
aF0
aF0
aF0
aF0
aF0
aF0
aF0
aF0
aF0
aF0
aF0
aF0
aF0
aF0
aF0
aF0
aF0
aF0
aF0
aF0
aF0
aF0
aF0
aF0
aF0
aF0
aF0
aF0
aF0
aF0
aF0
aF0
aF0
aF0
aF0
aF0
aF0
aF0
aF0
aF0
aF0
aF0
aF0
aF0
aF0
aF0
aF0
aF0
aF0
aF0
aF0
aF0
aF0
aF0
aF0
aF0
aF0
aF0
aF0
aF0
aF0
aF0
aF0
aF0
aF0
aF0
aF0
aF0
aF0
aF0
aF0
aF0
aF0
aF0
aF0
aF0
aF0
aF0
aF0
aF0
aF0
aF0
aF0
aF0
aF0
aF0
aF0
aF0
aF0
aF0
aF0
aF0
aF0
aF0
aF0
aF0
aF0
aF0
aF0
aF0
aF0
aF0
aF0
aF0
aF0
aF0
aF0
aF0
aF0
aF0
aF0
aF0
aF0
aF0
aF0
aF0
aF0
aF0
aF0
aF0
aF0
aF0
aF0
aF0
aF0
aF0
aF0
aF0
aF0
aF0
aF0
aF0
aF0
aF0
aF0
aF0
aF0
aF0
aF0
aF0
aF0
aF0
aF0
aF0
aF0
aF0
aF0
aF0
aF0
aF0
aF0
aF0
aF0
a.