(lp1
F2.1990742560262788e-13
aF1.4180323582024812e-13
aF1.7902346272080649e-13
aF6.3032912223093263e-14
aF1.3422596367718143e-13
aF1.9956258867637189e-14
aF3.531619441332623e-13
aF6.2727600891321345e-15
aF2.7655655543412649e-13
aF9.7755137318245033e-14
aF5.0159876252564572e-13
aF1.9928503292021585e-14
aF2.7150504067208203e-13
aF2.6190161150907443e-13
aF3.8857805861880479e-13
aF1.9662049766111527e-13
aF1.1862733018119798e-13
aF2.4097390749489023e-13
aF2.9126701051040982e-13
aF6.2766458697183225e-13
aF9.0949470177292844e-13
aF5.9230398363752132e-13
aF5.5044857560915261e-13
aF1.4555023852835807e-13
aF3.786970736996409e-13
aF5.4278803673923903e-13
aF1.0247358517290195e-12
aF5.3734794391857617e-13
aF1.7029710974725276e-12
aF2.5357493882438575e-13
aF1.9273471707492718e-12
aF3.3797409315639015e-12
aF1.964206575166827e-12
aF1.2860823517257813e-12
aF1.6404655411861313e-12
aF1.2845280394913063e-12
aF1.0329515021112456e-12
aF2.1975754549430349e-12
aF1.3511414209688155e-12
aF5.184741524999481e-13
aF7.8190787178300525e-12
aF2.7062796448262824e-12
aF2.0587975768648903e-12
aF1.2501111257279263e-12
aF1.971312002524428e-12
aF5.1718629379138292e-12
aF2.26929586233382e-12
aF3.2622793355585632e-12
aF3.8666847501645017e-12
aF1.9664270212160773e-12
aF8.0078166320163291e-12
aF2.7142732506035827e-12
aF1.7199575097492925e-11
aF9.5345953354808444e-12
aF7.8053119523247005e-12
aF5.8832938520936312e-12
aF7.0521366524189943e-13
aF2.375877272697835e-12
aF6.652456363553938e-13
aF9.8605568155107903e-12
aF1.5372592088169793e-11
aF6.0005334034940461e-12
aF7.6507689072968788e-12
aF1.1548095812941028e-11
aF4.5918824298496475e-12
aF1.8243184740640572e-12
aF1.8195223105976766e-11
aF2.3394619574901299e-12
aF1.5537793274234004e-11
aF1.6774137634456565e-11
aF5.9987570466546458e-11
aF2.4531487952117459e-11
aF1.7024603948812e-11
aF3.2152058793144533e-11
aF3.7918113093837746e-11
aF4.0930814293460571e-11
aF2.6059154834001674e-11
aF2.1643131731252703e-11
aF4.9809045776783023e-12
aF1.6438406191809944e-11
aF8.3467455169738969e-11
aF7.0592420797765953e-11
aF6.0026650317013264e-11
aF5.0597748213476734e-11
aF5.3766768814966781e-11
aF9.8076213816966629e-11
aF9.2157392828084994e-12
aF6.9235284172464162e-11
aF6.3906213654263411e-11
aF1.5717205315013429e-11
aF9.9760200100718066e-12
aF1.4898660083417781e-10
aF1.1118572729174048e-10
aF4.0188297134597884e-11
aF1.8715695659921039e-11
aF8.4270368461151191e-11
aF8.9727336671785451e-11
aF3.2855496101547033e-11
aF1.1006306976923952e-10
aF1.4215117971616564e-10
aF1.8832224668585695e-10
aF2.2765789253753713e-11
aF7.8387074609054253e-11
aF1.5421619536937214e-10
aF1.6694912119419314e-10
aF2.1961454876878471e-10
aF1.1266365618212159e-10
aF3.8966163629083894e-11
aF7.2247985372086987e-11
aF1.4992451724538114e-10
aF8.2849282989627682e-10
aF4.0932945921670498e-10
aF3.8767211663071066e-11
aF3.1099034458748065e-10
aF4.375806383905001e-10
aF2.4726887204451486e-11
aF4.170033207628876e-10
aF3.0490809876937419e-10
aF4.3650061343217122e-10
aF3.3941205401788466e-10
aF8.446932042716071e-11
aF3.9040060073602945e-10
aF1.0448957254993731e-09
aF1.7428192222766089e-10
aF7.8580342233181e-10
aF9.4803453976055607e-10
aF1.9865638023475185e-09
aF3.8539837987670186e-10
aF1.2548753147711977e-09
aF1.6211743059102446e-10
aF1.1491465556900948e-09
aF2.2862423065816984e-09
aF9.333689376944676e-10
aF1.9917933968827128e-10
aF3.0468072509393096e-10
aF2.0888819562969729e-09
aF1.394255377817899e-09
aF1.2339569366312674e-09
aF4.1040948417503387e-10
aF2.4881501303752884e-09
aF1.064108801074326e-09
aF2.0804691303057851e-09
aF6.6484062699601054e-10
aF5.120455170981586e-10
aF2.3478605726268142e-09
aF4.0390659705735743e-09
aF1.1691554391290992e-09
aF3.1327545002568778e-09
aF4.3537511373870075e-09
aF2.5929693947554919e-09
aF4.2173269321210682e-09
aF6.350092007778585e-09
aF5.9171725297346711e-09
aF2.0463630789890885e-10
aF1.0480107448529452e-08
aF8.0272002378478646e-09
aF1.431544660590589e-09
aF3.5934135667048395e-09
aF6.0390448200434264e-10
aF5.132278602104634e-09
aF1.8862920114770532e-09
aF2.1445885067805648e-08
aF2.0463630789895121e-09
aF9.253199095891982e-09
aF7.9908204497770004e-09
aF1.5881596482358926e-08
aF1.9059370970353484e-08
aF2.6715497369877994e-08
aF2.879460225921511e-09
aF2.5534973246976733e-08
aF1.6108970157802105e-08
aF1.673470251262188e-08
aF3.810055204667151e-08
aF1.0004441719502211e-08
aF3.7955032894387841e-08
aF1.1848896974697709e-08
aF1.3638782547786832e-08
aF1.3449607650251744e-08
aF1.6974809113889933e-08
aF5.0218659453094006e-08
aF4.1298335418105125e-08
aF6.447953637689352e-08
aF6.319169187918983e-08
aF1.0957592166960239e-08
aF2.144952304661274e-08
aF6.6276697907651037e-08
aF6.1452738009393215e-08
aF6.3046172726899385e-08
aF3.9442966226489199e-08
aF4.8137735575437546e-08
aF4.0163286037231405e-08
aF4.9767550081041738e-08
aF5.6228600442409515e-08
aF7.0707756094634533e-08
aF3.6670826375484467e-09
aF7.5669959187507629e-09
aF1.2907548807561398e-08
aF7.3923729360103607e-08
aF4.270987119525671e-08
aF2.5756889954236433e-08
aF1.0585063138501827e-07
aF3.6292476607302504e-08
aF1.7200363799929619e-08
aF4.1833845898509026e-07
aF1.3184035196900368e-08
aF1.5238765627145767e-07
aF9.3132257461547852e-09
aF4.399626050144434e-07
aF1.3853423297405243e-08
aF2.2398307919502258e-07
aF2.5093322619795799e-07
aF2.9336661100387573e-08
aF2.5000190362334251e-07
aF5.4918928071856499e-07
aF2.412707544863224e-07
aF3.880704753100872e-07
aF3.798631951212883e-07
aF5.186302587389946e-07
aF3.878958523273468e-07
aF2.718297764702296e-08
aF8.3469785749912262e-08
aF1.1657830327749252e-06
aF9.806826710718336e-07
aF5.3411349654197693e-07
aF6.5041240304708481e-07
aF7.5506977736949921e-07
aF5.5693089984210076e-07
aF1.4321412891149521e-06
aF1.0343501344323158e-06
aF2.7916394174098969e-07
aF1.1802185326814651e-06
aF1.5038531273612113e-06
aF6.0768797993659973e-08
aF5.7974830269900274e-07
aF3.5366974771022797e-07
aF2.8656795620918274e-06
aF3.2363459467887878e-07
aF1.118052750825882e-06
aF3.5811681300401688e-06
aF8.3423219621181488e-07
aF4.6715140342712402e-06
aF1.0868534445762634e-06
aF4.5904889702796936e-06
aF1.5068799257278442e-06
aF4.4787302648785499e-06
aF2.4037435651380612e-06
aF7.1851536631584167e-07
aF4.4102780520915985e-06
aF1.2712553143501282e-07
aF2.0121224224567413e-06
aF1.3457611203193665e-06
aF2.6123598217964172e-06
aF1.4775432653379994e-05
aF6.0163439741245384e-07
aF7.8566372394700545e-06
aF7.8137964010238647e-07
aF4.0661543607711792e-06
aF5.4128468036651611e-06
aF1.6139820502303337e-06
aF1.0930933086683581e-05
aF1.2200325727462769e-05
aF2.1254643797874451e-05
aF2.4750828742980957e-05
aF1.7762184256808755e-05
aF1.2867152690887451e-05
aF8.1527978181838989e-06
aF7.9590827226638794e-06
aF9.4436109066009521e-07
aF2.1476298570632935e-06
aF2.7658417820930481e-05
aF1.9978731870651245e-05
aF2.7261674404144287e-05
aF8.8140370735345641e-06
aF2.8461217880249023e-06
aF4.8615038963362167e-06
aF3.7025660276412964e-05
aF4.9561262159159014e-05
aF2.9206275939941406e-06
aF2.0489096641540527e-06
aF6.4447522163391113e-05
aF3.1955540180206299e-05
aF8.5666775703430176e-05
aF7.222592830657959e-05
aF9.3586742877960205e-05
aF1.1570751667022705e-05
aF6.6161155700683594e-05
aF2.9236078262329102e-05
aF2.0042061805725098e-06
aF6.4492225646972656e-05
aF2.3208560378407128e-05
aF3.0651688575744629e-05
aF8.557736873626709e-05
aF0.00014480948448181152
aF7.5161467975703999e-05
aF4.7534704492591118e-06
aF1.309812068939209e-05
aF3.337860107421875e-06
aF4.9531459808349609e-05
aF0.00014093518257141113
aF6.4566731452941895e-05
aF0.00035899879003409296
aF1.0788440704345703e-05
aF0.00012180209159851074
aF0.00013846158981323242
aF0.00012806057929992676
aF0.00018250942230224609
aF9.8466873168945312e-05
aF0.0001532435417175293
aF1.6331672668457031e-05
aF5.0246715545654297e-05
aF6.8545341491699219e-06
aF0.00079292058944702148
aF0.00029361248016357422
aF6.1154365539550781e-05
aF0.00041300058364868164
aF0.00013774633407592773
aF0.0003083348274230957
aF2.9802329663652927e-05
aF0.00015300512313842773
aF0.00027006864547729492
aF0.00079298019409179688
aF0.00078105926513671875
aF0.0010218620300292969
aF5.8531761169433594e-05
aF0.00015878677368164062
aF0.00079155014827847481
aF0.00041270256042480469
aF0.00074446201324462891
aF0.00065135955810546875
aF9.4652175903320312e-05
aF0.0018835067749023438
aF0.0032021999359130859
aF0.0024194736033678055
aF7.2240836743731052e-05
aF0.0016326904296875
aF0.0022532939910888672
aF0.00015854835510253906
aF0.0010159015655517578
aF0.0016906261444091797
aF0.0020914077758789062
aF0.0050625801086425781
aF0.005542755126953125
aF0.0045099258422851562
aF0.0043182373046875
aF0.0033278465270996094
aF0.002349853515625
aF0.0025429725646972656
aF0.00220489501953125
aF0.0020856857299804688
aF0.00011348724365234375
aF0.001918792724609375
aF0.0017156600952148438
aF0.0043831020593643188
aF0.005126953125
aF0.012484550476074219
aF0.00040531158447265625
aF0.0083742141723632812
aF0.004154205322265625
aF0.0051517784595489502
aF0.0026912689208984375
aF0.0022716522216796875
aF0.0004100799560546875
aF0.000225067138671875
aF0.010564804077148438
aF0.0054798126220703125
aF0.01865386962890625
aF0.0041484832763671875
aF0.0090885162353515625
aF0.024206161499023438
aF0.004791259765625
aF0.017547607421875
aF0.01245880126953125
aF0.0348052978515625
aF0.001796722412109375
aF0.02051544189453125
aF0.014766693115234375
aF0.030757904052734375
aF0.0104217529296875
aF0.003753662109375
aF0.034107208251953125
aF0.00921630859375
aF0.019195556640625
aF0.1320648193359375
aF0.0561676025390625
aF0.09928131103515625
aF0.13237762451171875
aF0.02204132080078125
aF0.10132598876953125
aF0.0059051513671875
aF0.001922607421875
aF0.0887298583984375
aF0.038238525390625
aF0.0037384033203125
aF0.061981201171875
aF0.1330718994140625
aF0.0624237060546875
aF0.074676513671875
aF0.11548995971679688
aF0.0026702880859375
aF0.019928008317947388
aF0.049468994140625
aF0.0540771484375
aF0.045196533203125
aF0.2254638671875
aF0.25646984577178955
aF0.3211669921875
aF0.17803955078125
aF0.0091552734375
aF0.0111083984375
aF0.198577880859375
aF0.0184326171875
aF0.728515625
aF0.01458740234375
aF0.49676513671875
aF0.35614019632339478
aF0.1512451171875
aF0.1053466796875
aF0.19287109375
aF0.26226806640625
aF0.4066162109375
aF0.0338134765625
aF0.0302734375
aF1.2835693359375
aF0.0572509765625
aF1.0850830078125
aF0.53173828125
aF1.0333251953125
aF0.087158203125
aF1.216796875
aF1.903076171875
aF0.575439453125
aF1.94580078125
aF0.0673828125
aF0.454833984375
aF1.4091796875
aF0.64599609375
aF1.598388671875
aF1.193115234375
aF1.298828125
aF3.000732421875
aF2.48828125
aF1.331573486328125
aF5.66650390625
aF1.3623046875
aF3.2822265625
aF7.546875
aF2.4892578125
aF5.24658203125
aF1.97998046875
aF5.85595703125
aF0.7392578125
aF8.548828125
aF5.443359375
aF2.4931640625
aF16.1240234375
aF2.49609375
aF12.2314453125
aF0.425048828125
aF5.490234375
aF1.1962890625
aF9.677734375
aF2.76171875
aF10.015625
aF14.537109375
aF10.00390625
aF17.25390625
aF1.556640625
aF2.3359375
aF9.181640625
aF11.302734375
aF2.8515625
aF0.921875
aF8.03125
aF1.046875
aF10.2626953125
aF21.96484375
aF17.10546875
aF64.82421875
aF10.9609375
aF18.19140625
aF32.84375
aF80.6328125
aF5.5234375
aF60.96875
aF115.7890625
aF12.09375
aF83.1796875
aF19.7109375
aF37.484375
aF48.984375
aF87.171875
aF100.03125
aF9.71875
aF164.328125
aF133.453125
aF67.8515625
aF40.453125
aF46.6015625
aF4.328125
aF19.53125
aF161.4375
aF25.03125
aF327.5
aF85.9375
aF25.46875
aF26.78125
aF13.75
aF151.125
aF296.78125
aF375.1875
aF299.75
aF29.375
aF139.0625
aF247.6875
aF336.875
aF214.0625
aF379.3125
aF266.5625
aF290.3125
aF106.875
a.(lp1
F2.1990742560262788e-13
aF1.4180323582024812e-13
aF1.7902346272080649e-13
aF6.3032912223093263e-14
aF1.3422596367718143e-13
aF1.9956258867637189e-14
aF3.531619441332623e-13
aF6.2727600891321345e-15
aF2.7655655543412649e-13
aF9.7755137318245033e-14
aF5.0159876252564572e-13
aF1.9928503292021585e-14
aF2.7150504067208203e-13
aF2.6190161150907443e-13
aF3.8857805861880479e-13
aF1.9662049766111527e-13
aF1.1862733018119798e-13
aF2.4097390749489023e-13
aF2.9126701051040982e-13
aF6.2766458697183225e-13
aF9.0949470177292844e-13
aF5.9230398363752132e-13
aF5.5044857560915261e-13
aF1.4555023852835807e-13
aF3.786970736996409e-13
aF5.4278803673923903e-13
aF1.0247358517290195e-12
aF5.3734794391857617e-13
aF1.7029710974725276e-12
aF2.5357493882438575e-13
aF1.9273471707492718e-12
aF3.3797409315639015e-12
aF1.964206575166827e-12
aF1.2860823517257813e-12
aF1.6404655411861313e-12
aF1.2845280394913063e-12
aF1.0329515021112456e-12
aF2.1975754549430349e-12
aF1.3511414209688155e-12
aF5.184741524999481e-13
aF7.8190787178300525e-12
aF2.7062796448262824e-12
aF2.0587975768648903e-12
aF1.2501111257279263e-12
aF1.971312002524428e-12
aF5.1718629379138292e-12
aF2.26929586233382e-12
aF3.2622793355585632e-12
aF3.8666847501645017e-12
aF1.9664270212160773e-12
aF8.0078166320163291e-12
aF2.7142732506035827e-12
aF1.7199575097492925e-11
aF9.5345953354808444e-12
aF7.8053119523247005e-12
aF5.8832938520936312e-12
aF7.0521366524189943e-13
aF2.375877272697835e-12
aF6.652456363553938e-13
aF9.8605568155107903e-12
aF1.5372592088169793e-11
aF6.0005334034940461e-12
aF7.6507689072968788e-12
aF1.1548095812941028e-11
aF4.5918824298496475e-12
aF1.8243184740640572e-12
aF1.8195223105976766e-11
aF2.3394619574901299e-12
aF1.5537793274234004e-11
aF1.6774137634456565e-11
aF5.9987570466546458e-11
aF2.4531487952117459e-11
aF1.7024603948812e-11
aF3.2152058793144533e-11
aF3.7918113093837746e-11
aF4.0930814293460571e-11
aF2.6059154834001674e-11
aF2.1643131731252703e-11
aF4.9809045776783023e-12
aF1.6438406191809944e-11
aF8.3467455169738969e-11
aF7.0592420797765953e-11
aF6.0026650317013264e-11
aF5.0597748213476734e-11
aF5.3766768814966781e-11
aF9.8076213816966629e-11
aF9.2157392828084994e-12
aF6.9235284172464162e-11
aF6.3906213654263411e-11
aF1.5717205315013429e-11
aF9.9760200100718066e-12
aF1.4898660083417781e-10
aF1.1118572729174048e-10
aF4.0188297134597884e-11
aF1.8715695659921039e-11
aF8.4270368461151191e-11
aF8.9727336671785451e-11
aF3.2855496101547033e-11
aF1.1006306976923952e-10
aF1.4215117971616564e-10
aF1.8832224668585695e-10
aF2.2765789253753713e-11
aF7.8387074609054253e-11
aF1.5421619536937214e-10
aF1.6694912119419314e-10
aF2.1961454876878471e-10
aF1.1266365618212159e-10
aF3.8966163629083894e-11
aF7.2247985372086987e-11
aF1.4992451724538114e-10
aF8.2849282989627682e-10
aF4.0932945921670498e-10
aF3.8767211663071066e-11
aF3.1099034458748065e-10
aF4.375806383905001e-10
aF2.4726887204451486e-11
aF4.170033207628876e-10
aF3.0490809876937419e-10
aF4.3650061343217122e-10
aF3.3941205401788466e-10
aF8.446932042716071e-11
aF3.9040060073602945e-10
aF1.0448957254993731e-09
aF1.7428192222766089e-10
aF7.8580342233181e-10
aF9.4803453976055607e-10
aF1.9865638023475185e-09
aF3.8539837987670186e-10
aF1.2548753147711977e-09
aF1.6211743059102446e-10
aF1.1491465556900948e-09
aF2.2862423065816984e-09
aF9.333689376944676e-10
aF1.9917933968827128e-10
aF3.0468072509393096e-10
aF2.0888819562969729e-09
aF1.394255377817899e-09
aF1.2339569366312674e-09
aF4.1040948417503387e-10
aF2.4881501303752884e-09
aF1.064108801074326e-09
aF2.0804691303057851e-09
aF6.6484062699601054e-10
aF5.120455170981586e-10
aF2.3478605726268142e-09
aF4.0390659705735743e-09
aF1.1691554391290992e-09
aF3.1327545002568778e-09
aF4.3537511373870075e-09
aF2.5929693947554919e-09
aF4.2173269321210682e-09
aF6.350092007778585e-09
aF5.9171725297346711e-09
aF2.0463630789890885e-10
aF1.0480107448529452e-08
aF8.0272002378478646e-09
aF1.431544660590589e-09
aF3.5934135667048395e-09
aF6.0390448200434264e-10
aF5.132278602104634e-09
aF1.8862920114770532e-09
aF2.1445885067805648e-08
aF2.0463630789895121e-09
aF9.253199095891982e-09
aF7.9908204497770004e-09
aF1.5881596482358926e-08
aF1.9059370970353484e-08
aF2.6715497369877994e-08
aF2.879460225921511e-09
aF2.5534973246976733e-08
aF1.6108970157802105e-08
aF1.673470251262188e-08
aF3.810055204667151e-08
aF1.0004441719502211e-08
aF3.7955032894387841e-08
aF1.1848896974697709e-08
aF1.3638782547786832e-08
aF1.3449607650251744e-08
aF1.6974809113889933e-08
aF5.0218659453094006e-08
aF4.1298335418105125e-08
aF6.447953637689352e-08
aF6.319169187918983e-08
aF1.0957592166960239e-08
aF2.144952304661274e-08
aF6.6276697907651037e-08
aF6.1452738009393215e-08
aF6.3046172726899385e-08
aF3.9442966226489199e-08
aF4.8137735575437546e-08
aF4.0163286037231405e-08
aF4.9767550081041738e-08
aF5.6228600442409515e-08
aF7.0707756094634533e-08
aF3.6670826375484467e-09
aF7.5669959187507629e-09
aF1.2907548807561398e-08
aF7.3923729360103607e-08
aF4.270987119525671e-08
aF2.5756889954236433e-08
aF1.0585063138501827e-07
aF3.6292476607302504e-08
aF1.7200363799929619e-08
aF4.1833845898509026e-07
aF1.3184035196900368e-08
aF1.5238765627145767e-07
aF9.3132257461547852e-09
aF4.399626050144434e-07
aF1.3853423297405243e-08
aF2.2398307919502258e-07
aF2.5093322619795799e-07
aF2.9336661100387573e-08
aF2.5000190362334251e-07
aF5.4918928071856499e-07
aF2.412707544863224e-07
aF3.880704753100872e-07
aF3.798631951212883e-07
aF5.186302587389946e-07
aF3.878958523273468e-07
aF2.718297764702296e-08
aF8.3469785749912262e-08
aF1.1657830327749252e-06
aF9.806826710718336e-07
aF5.3411349654197693e-07
aF6.5041240304708481e-07
aF7.5506977736949921e-07
aF5.5693089984210076e-07
aF1.4321412891149521e-06
aF1.0343501344323158e-06
aF2.7916394174098969e-07
aF1.1802185326814651e-06
aF1.5038531273612113e-06
aF6.0768797993659973e-08
aF5.7974830269900274e-07
aF3.5366974771022797e-07
aF2.8656795620918274e-06
aF3.2363459467887878e-07
aF1.118052750825882e-06
aF3.5811681300401688e-06
aF8.3423219621181488e-07
aF4.6715140342712402e-06
aF1.0868534445762634e-06
aF4.5904889702796936e-06
aF1.5068799257278442e-06
aF4.4787302648785499e-06
aF2.4037435651380612e-06
aF7.1851536631584167e-07
aF4.4102780520915985e-06
aF1.2712553143501282e-07
aF2.0121224224567413e-06
aF1.3457611203193665e-06
aF2.6123598217964172e-06
aF1.4775432653379994e-05
aF6.0163439741245384e-07
aF7.8566372394700545e-06
aF7.8137964010238647e-07
aF4.0661543607711792e-06
aF5.4128468036651611e-06
aF1.6139820502303337e-06
aF1.0930933086683581e-05
aF1.2200325727462769e-05
aF2.1254643797874451e-05
aF2.4750828742980957e-05
aF1.7762184256808755e-05
aF1.2867152690887451e-05
aF8.1527978181838989e-06
aF7.9590827226638794e-06
aF9.4436109066009521e-07
aF2.1476298570632935e-06
aF2.7658417820930481e-05
aF1.9978731870651245e-05
aF2.7261674404144287e-05
aF8.8140370735345641e-06
aF2.8461217880249023e-06
aF4.8615038963362167e-06
aF3.7025660276412964e-05
aF4.9561262159159014e-05
aF2.9206275939941406e-06
aF2.0489096641540527e-06
aF6.4447522163391113e-05
aF3.1955540180206299e-05
aF8.5666775703430176e-05
aF7.222592830657959e-05
aF9.3586742877960205e-05
aF1.1570751667022705e-05
aF6.6161155700683594e-05
aF2.9236078262329102e-05
aF2.0042061805725098e-06
aF6.4492225646972656e-05
aF2.3208560378407128e-05
aF3.0651688575744629e-05
aF8.557736873626709e-05
aF0.00014480948448181152
aF7.5161467975703999e-05
aF4.7534704492591118e-06
aF1.309812068939209e-05
aF3.337860107421875e-06
aF4.9531459808349609e-05
aF0.00014093518257141113
aF6.4566731452941895e-05
aF0.00035899879003409296
aF1.0788440704345703e-05
aF0.00012180209159851074
aF0.00013846158981323242
aF0.00012806057929992676
aF0.00018250942230224609
aF9.8466873168945312e-05
aF0.0001532435417175293
aF1.6331672668457031e-05
aF5.0246715545654297e-05
aF6.8545341491699219e-06
aF0.00079292058944702148
aF0.00029361248016357422
aF6.1154365539550781e-05
aF0.00041300058364868164
aF0.00013774633407592773
aF0.0003083348274230957
aF2.9802329663652927e-05
aF0.00015300512313842773
aF0.00027006864547729492
aF0.00079298019409179688
aF0.00078105926513671875
aF0.0010218620300292969
aF5.8531761169433594e-05
aF0.00015878677368164062
aF0.00079155014827847481
aF0.00041270256042480469
aF0.00074446201324462891
aF0.00065135955810546875
aF9.4652175903320312e-05
aF0.0018835067749023438
aF0.0032021999359130859
aF0.0024194736033678055
aF7.2240836743731052e-05
aF0.0016326904296875
aF0.0022532939910888672
aF0.00015854835510253906
aF0.0010159015655517578
aF0.0016906261444091797
aF0.0020914077758789062
aF0.0050625801086425781
aF0.005542755126953125
aF0.0045099258422851562
aF0.0043182373046875
aF0.0033278465270996094
aF0.002349853515625
aF0.0025429725646972656
aF0.00220489501953125
aF0.0020856857299804688
aF0.00011348724365234375
aF0.001918792724609375
aF0.0017156600952148438
aF0.0043831020593643188
aF0.005126953125
aF0.012484550476074219
aF0.00040531158447265625
aF0.0083742141723632812
aF0.004154205322265625
aF0.0051517784595489502
aF0.0026912689208984375
aF0.0022716522216796875
aF0.0004100799560546875
aF0.000225067138671875
aF0.010564804077148438
aF0.0054798126220703125
aF0.01865386962890625
aF0.0041484832763671875
aF0.0090885162353515625
aF0.024206161499023438
aF0.004791259765625
aF0.017547607421875
aF0.01245880126953125
aF0.0348052978515625
aF0.001796722412109375
aF0.02051544189453125
aF0.014766693115234375
aF0.030757904052734375
aF0.0104217529296875
aF0.003753662109375
aF0.034107208251953125
aF0.00921630859375
aF0.019195556640625
aF0.1320648193359375
aF0.0561676025390625
aF0.09928131103515625
aF0.13237762451171875
aF0.02204132080078125
aF0.10132598876953125
aF0.0059051513671875
aF0.001922607421875
aF0.0887298583984375
aF0.038238525390625
aF0.0037384033203125
aF0.061981201171875
aF0.1330718994140625
aF0.0624237060546875
aF0.074676513671875
aF0.11548995971679688
aF0.0026702880859375
aF0.019928008317947388
aF0.049468994140625
aF0.0540771484375
aF0.045196533203125
aF0.2254638671875
aF0.25646984577178955
aF0.3211669921875
aF0.17803955078125
aF0.0091552734375
aF0.0111083984375
aF0.198577880859375
aF0.0184326171875
aF0.728515625
aF0.01458740234375
aF0.49676513671875
aF0.35614019632339478
aF0.1512451171875
aF0.1053466796875
aF0.19287109375
aF0.26226806640625
aF0.4066162109375
aF0.0338134765625
aF0.0302734375
aF1.2835693359375
aF0.0572509765625
aF1.0850830078125
aF0.53173828125
aF1.0333251953125
aF0.087158203125
aF1.216796875
aF1.903076171875
aF0.575439453125
aF1.94580078125
aF0.0673828125
aF0.454833984375
aF1.4091796875
aF0.64599609375
aF1.598388671875
aF1.193115234375
aF1.298828125
aF3.000732421875
aF2.48828125
aF1.331573486328125
aF5.66650390625
aF1.3623046875
aF3.2822265625
aF7.546875
aF2.4892578125
aF5.24658203125
aF1.97998046875
aF5.85595703125
aF0.7392578125
aF8.548828125
aF5.443359375
aF2.4931640625
aF16.1240234375
aF2.49609375
aF12.2314453125
aF0.425048828125
aF5.490234375
aF1.1962890625
aF9.677734375
aF2.76171875
aF10.015625
aF14.537109375
aF10.00390625
aF17.25390625
aF1.556640625
aF2.3359375
aF9.181640625
aF11.302734375
aF2.8515625
aF0.921875
aF8.03125
aF1.046875
aF10.2626953125
aF21.96484375
aF17.10546875
aF64.82421875
aF10.9609375
aF18.19140625
aF32.84375
aF80.6328125
aF5.5234375
aF60.96875
aF115.7890625
aF12.09375
aF83.1796875
aF19.7109375
aF37.484375
aF48.984375
aF87.171875
aF100.03125
aF9.71875
aF164.328125
aF133.453125
aF67.8515625
aF40.453125
aF46.6015625
aF4.328125
aF19.53125
aF161.4375
aF25.03125
aF327.5
aF85.9375
aF25.46875
aF26.78125
aF13.75
aF151.125
aF296.78125
aF375.1875
aF299.75
aF29.375
aF139.0625
aF247.6875
aF336.875
aF214.0625
aF379.3125
aF266.5625
aF290.3125
aF106.875
a.(lp1
F0
aF0
aF0
aF0
aF0
aF0
aF0
aF0
aF0
aF0
aF0
aF0
aF0
aF0
aF0
aF0
aF0
aF0
aF0
aF0
aF0
aF0
aF0
aF0
aF0
aF0
aF0
aF0
aF0
aF0
aF0
aF0
aF0
aF0
aF0
aF0
aF0
aF0
aF0
aF0
aF0
aF0
aF0
aF0
aF0
aF0
aF0
aF0
aF0
aF0
aF0
aF0
aF0
aF0
aF0
aF0
aF0
aF0
aF0
aF0
aF0
aF0
aF0
aF0
aF0
aF0
aF0
aF0
aF0
aF0
aF0
aF0
aF0
aF0
aF0
aF3.1624702856447584e-13
aF0
aF0
aF0
aF1.1368683772161603e-13
aF2.7300384175532599e-13
aF5.2313708920337376e-13
aF2.3164803408803891e-13
aF6.7085226262975084e-13
aF1.7053025658242404e-13
aF0
aF1.1368683772161603e-13
aF4.684586052405848e-13
aF3.9862557699166246e-13
aF0
aF1.0346723477994146e-12
aF6.8212102632969618e-13
aF1.6029955141050323e-12
aF1.4155343563970746e-12
aF3.4106051316484809e-13
aF3.5826897004653802e-13
aF4.5474735088646412e-13
aF7.9597439750500598e-13
aF1.4893086763834162e-12
aF8.4143803036340614e-13
aF4.5469183973523286e-13
aF1.5916157281026244e-12
aF6.8217653748092744e-13
aF1.8189894035458565e-12
aF1.3642420526593924e-12
aF1.3868461934407606e-12
aF4.4709513868923523e-12
aF2.6602331448799532e-12
aF6.4782623709902513e-13
aF1.1086132012394501e-12
aF4.5476122867427193e-12
aF1.8189894035458565e-12
aF4.860056801447854e-12
aF5.4570237217888007e-12
aF5.9120208728558055e-12
aF2.5011104298755527e-12
aF4.4041992275367647e-12
aF2.7795266088759263e-12
aF4.0017433811101455e-12
aF3.7287395393548195e-12
aF1.18690945960509e-11
aF6.548261932692867e-12
aF8.2512496835109702e-12
aF1.0573042441563985e-11
aF4.5474735088646412e-12
aF6.2847782533737018e-12
aF1.5177026302382046e-11
aF1.0004497230653442e-11
aF1.2482820332948563e-11
aF3.5786928975767296e-12
aF5.4569682106375694e-12
aF1.397898463650904e-11
aF1.2960243989112996e-11
aF1.4551859717215621e-11
aF2.0463797323344579e-11
aF8.1855910938344323e-12
aF1.4551859717215621e-11
aF7.2760131253346572e-12
aF2.219175954110142e-11
aF6.8215155746287337e-12
aF2.4601654047273769e-11
aF6.0162941295516245e-11
aF3.6015912474596234e-11
aF4.4110659569440713e-11
aF4.0017988922613767e-11
aF2.5465907160793222e-11
aF3.34695826609277e-11
aF1.8190060568912259e-11
aF3.0922986393733254e-11
aF2.9285529556949153e-11
aF4.7293891025645962e-11
aF9.2313867661175666e-11
aF3.2741920286127879e-11
aF5.0931753259320091e-11
aF5.0022375130964747e-11
aF3.7289338283841289e-11
aF5.093164778813275e-11
aF5.3933024712904398e-11
aF3.6652869628270946e-11
aF4.3655745685100555e-11
aF1.4770199507907478e-10
aF9.6406299610052315e-11
aF1.443553609981052e-10
aF1.4297258377204969e-10
aF1.6007100089870682e-10
aF1.3387777553214555e-10
aF1.5716078438643422e-10
aF8.0762840859449625e-11
aF1.0419171081466061e-10
aF9.4587310206506459e-11
aF1.2470993682178744e-10
aF3.1104741005094638e-10
aF6.730260793119669e-11
aF1.0550132989450844e-10
aF1.8917489796876907e-10
aF9.6042646058336345e-11
aF1.1641532182693481e-10
aF1.4551909677251729e-10
aF1.6007120628991345e-10
aF2.4156210365333664e-10
aF7.5669945309719822e-10
aF3.0558999775109896e-10
aF4.9476533425931802e-10
aF6.693879617269971e-10
aF2.0445439785632402e-10
aF1.7462303825155345e-10
aF7.8216549903586952e-10
aF1.8189888484343442e-10
aF8.0326597595799294e-10
aF1.7462298274040222e-10
aF1.6298143945547849e-09
aF1.4435502404595932e-09
aF6.4028421453699025e-10
aF1.9645084448072225e-09
aF9.790530330899827e-10
aF2.6921043172478676e-10
aF4.988396640204229e-10
aF6.9849193096160889e-10
aF5.9371813021513731e-10
aF8.0151967840613738e-10
aF2.1036248853967265e-09
aF1.818407202591743e-09
aF3.0908267500961982e-09
aF6.9849193096160889e-10
aF9.2259139217176767e-10
aF1.2223607126493619e-09
aF6.7811910531290213e-10
aF1.469743438065052e-09
aF2.7939679458910405e-09
aF2.0954757928848267e-09
aF5.867332147913018e-09
aF3.672903603479938e-09
aF6.5658241621413538e-09
aF2.7997884288755159e-09
aF3.1432135783049375e-09
aF2.1536834537982941e-09
aF2.7357602849775731e-09
aF5.2386894822120667e-10
aF2.3283064365386963e-09
aF2.4447218138767823e-09
aF2.7939677238464355e-09
aF1.5133991282390014e-09
aF4.9476511776447296e-09
aF1.0430813013329044e-08
aF7.823109826610164e-09
aF1.0896474300636783e-08
aF2.8987415245929071e-09
aF9.4179995469012567e-09
aF1.2479722533154103e-08
aF3.0850059173914701e-09
aF1.862645149230957e-09
aF1.445878278216739e-08
aF1.4528632352739379e-08
aF1.8626451813406886e-08
aF1.1641532349226935e-08
aF8.009373997364122e-09
aF3.7252902429507628e-09
aF5.471520070354785e-09
aF2.8312206457048462e-08
aF1.3336539456121344e-08
aF5.2386894711098364e-08
aF4.6100467443466187e-08
aF7.4505805969238281e-09
aF5.9604644830901776e-08
aF3.4691765904426575e-08
aF4.2980536679726454e-08
aF1.9790604710578918e-08
aF2.6542693432052289e-08
aF3.650784502484683e-08
aF4.2514875453480983e-08
aF8.8568776881459144e-08
aF9.6857547815520917e-08
aF2.6542693543074591e-08
aF7.7765435130272567e-08
aF7.7486038176366463e-08
aF1.0654330229176168e-07
aF8.0168247379441832e-08
aF2.2351741790771484e-08
aF5.1036477188848296e-08
aF5.7276338449874231e-08
aF4.2840838487823163e-08
aF1.1920928941200337e-07
aF4.8428773935516034e-08
aF2.2239983140659448e-07
aF1.8142163754619745e-07
aF1.6298145041893086e-07
aF5.4016709327697754e-08
aF5.2154064345000251e-08
aF4.4703483581542969e-08
aF4.0046870486420971e-08
aF3.1515955922767347e-07
aF3.0875206001867995e-07
aF1.9408762612638243e-07
aF2.663582562845157e-07
aF8.7544321958343829e-08
aF2.2351741785220369e-07
aF1.7918646316728015e-07
aF3.8892030662651678e-07
aF3.6507844947131218e-07
aF3.0808150230932085e-07
aF6.5565109252929688e-07
aF4.8056244850158691e-07
aF7.3760747909545898e-07
aF5.841255188987482e-07
aF5.4240226171620165e-07
aF7.2717666641519687e-07
aF1.9371509535348608e-07
aF6.8545341494474776e-07
aF6.5565109252929688e-07
aF3.4645199786798031e-07
aF9.5367431657278345e-07
aF4.2140483691444075e-07
aF7.152557371936652e-07
aF6.1988830580839154e-07
aF1.2484192865591659e-06
aF7.5250864028930664e-07
aF5.8114528672659205e-07
aF1.8835068318900916e-06
aF3.7252902979068026e-07
aF7.1942806045832697e-07
aF1.6987323760986328e-06
aF3.046989462185401e-06
aF7.9870223974598535e-07
aF2.8759241101072863e-06
aF1.5497207641601562e-06
aF4.7683715814761385e-07
aF3.2901761735648627e-06
aF3.1739473343450619e-06
aF2.5987621484202528e-06
aF2.6822090148925781e-07
aF5.3644180297851562e-07
aF6.2584877014160156e-07
aF1.0728836061235647e-06
aF2.652406749459324e-06
aF7.2002394520820356e-06
aF4.8446654982436943e-06
aF5.3215026564468193e-06
aF9.6797950392135679e-06
aF3.111362384483618e-06
aF2.098083241447446e-06
aF6.6757202148992612e-06
aF1.3885497639433364e-05
aF6.7234039305974491e-06
aF1.0049343108931019e-05
aF7.1525573729913638e-06
aF1.2040138244684417e-05
aF2.9420852952211085e-06
aF5.078315735074224e-06
aF4.5299530026243762e-06
aF4.8875808715820312e-06
aF1.3232230685678027e-05
aF3.814697265625e-06
aF1.8072122475121244e-05
aF2.0980834960770967e-05
aF1.9073486328413659e-05
aF1.3852099800926165e-05
aF1.7471313010913869e-05
aF1.3351440429520967e-05
aF1.5258789062444489e-05
aF1.8572806857408697e-05
aF3.0517578124944489e-05
aF6.0272275004547016e-05
aF5.9556947599209709e-05
aF5.0964353606292036e-05
aF3.2615661620938319e-05
aF1.9073486328125e-05
aF3.3807754516779198e-05
aF3.0994415283147614e-05
aF4.1389442049011294e-05
aF2.09808349609375e-05
aF4.6730041503961761e-05
aF0.0001091957092286544
aF4.0817167610840421e-05
aF5.3405761718583467e-05
aF6.9808959961081824e-05
aF2.4414006621120699e-05
aF7.7724456787220397e-05
aF4.6997062861986461e-05
aF5.4359436035211761e-05
aF8.2302000374345763e-05
aF5.0544753321446478e-05
aF0.00021343113855959439
aF3.1471252441350739e-05
aF0.00011711120605444325
aF9.1552734375055511e-05
aF0.00020046271383775683
aF0.00025482214987302407
aF0.00012092590332041242
aF5.7601928711126238e-05
aF4.1961669921652955e-05
aF0.00045738127082600721
aF0.00018920809032707542
aF3.0517578125e-05
aF0.0001220703125
aF0.00018310546875
aF0.00048217698931679598
aF0.0001678466796875
aF0.00022582978010909915
aF9.1552734374833467e-05
aF9.1552734375055511e-05
aF0.00013732910156233347
aF0.00018310546875
aF0.00034545850756112495
aF0.00036621093750022204
aF0.00030441237613543226
aF0.0003662109375
aF0.00045394897460948602
aF0.00030517578124994449
aF0.00056472750193853338
aF0.00025634765625017766
aF0.00036621093749994449
aF0.0014404177665709728
aF0.000244140625
aF0.00036621093749994449
aF0.00075195121783747099
aF0.0010800151826813875
aF0.0017334222793580656
aF0.000732421875
aF0.00041961669921886102
aF0.0017712353469805874
aF0.00048828125
aF0.0023436546558456839
aF0.0024719238281250555
aF0.0030273246802382347
aF0.001748039247095462
aF0.0014953613281251665
aF0.0013732910156248612
aF0.000732421875
aF0.0026275634765627887
aF0.0023923492878587249
aF0.0040588378906249445
aF0.0032714843750001445
aF0.0031494140625001445
aF0.0030077819943381545
aF0.0071785927983002542
aF0.0043456268608453724
aF0.0035824669450114643
aF0.0058225631713865744
aF0.0038757324218750555
aF0.004547268152236883
aF0.011996948337480662
aF0.0088500976562500555
aF0.0062596436499803287
aF0.0041015624999999889
aF0.0081905749140076672
aF0.0029296875
aF0.0053126067906659746
aF0.0054672256097560434
aF0.0049438476562500555
aF0.0057617187499998225
aF0.016318382227476808
aF0.020233337807496976
aF0.022949218749999889
aF0.0054931640625
aF0.015625000000000222
aF0.020263671875000111
aF0.029492187500000121
aF0.015234375000000189
aF0.0076904296874999445
aF0.020697033382066354
aF0.056640625000000056
aF0.015625
aF0.039004088785046749
aF0.015625
aF0.0097656249999998612
aF0.021240234374999944
aF0.049218749999999908
aF0.033255767822265525
aF0.027966802959501574
aF0.012939453125000167
aF0.02734375
aF0.040566770186335421
aF0.043750000000000101
aF0.0234375
aF0.065944325273011195
aF0.062109375000000147
aF0.090625000000000094
aF0.0234375
aF0.0244140625
aF0.048117236024844745
aF0.29298677884615387
aF0.19140624999999989
aF0.078125000000000167
aF0.19244384765624994
aF0.084104938271605034
aF0.046875
aF0.18750000000000017
aF0.19218750000000018
aF0.31250000000000006
aF0.13189697265624994
aF0.35594512195121947
aF0.27134146341463405
aF0.31249999999999978
aF0.12499999999999994
aF0.40039062500000006
aF0.36718750000000028
aF0.34375000000000011
aF0.19237804878048781
aF0.32031250000000017
aF0.23125000000000001
aF0.21874999999999986
aF0.94375000000000031
aF0.35937499999999983
aF0.75952380952380971
aF0.78161764705882364
aF0.94073701746323546
aF0.52380952380952384
aF0.6818173363095239
aF0.125
aF0.125
aF0.3125
aF0.375
aF0.83750000000000024
aF0.93607954545454519
aF0.40000000000000019
aF1.0874999999999999
aF1.253125
aF1.5648437500000001
aF0.62499999999999989
aF0.6744318181818183
aF1.9874999999999998
aF1.5312500000000004
aF5.7500000000000009
aF0.96874999999999978
aF0.81249999999999978
aF0
aF1.175
aF4.4937499999999995
aF1.36328125
aF1.5249999999999999
aF6
aF3.6818181818181817
aF2.65625
aF4.9625000000000004
aF4.7553571428571431
aF11.586931818181817
aF5.7821428571428566
aF2.8500000000000001
aF4.5
aF3.4625000000000004
a.