(lp1
F1.915134717478395e-14
aF6.1464722200810229e-14
aF3.2474023470285829e-14
aF7.7313155877334339e-14
aF7.741030039198904e-14
aF1.8567092308074962e-13
aF1.9789725413943415e-14
aF2.861599845971341e-14
aF1.3267165144270621e-14
aF3.9968028886505635e-15
aF4.4686476741162551e-14
aF7.127631818093505e-14
aF2.5329738306822946e-13
aF2.5462965069777965e-13
aF1.4238610290817633e-14
aF1.2659318038288347e-13
aF1.5248913243226525e-13
aF1.9773072068574038e-13
aF5.5455640080026569e-14
aF1.8199330931167879e-13
aF3.3589797610034111e-13
aF5.1053605787387824e-13
aF2.3536728122053319e-14
aF1.6608936448392342e-13
aF1.1612932837579137e-13
aF5.3607118744025684e-13
aF7.6477713051303908e-13
aF3.4028335704761048e-13
aF2.5085489241405412e-13
aF4.5297099404706387e-14
aF1.8274270985330077e-13
aF6.3060667798708891e-13
aF1.7685852782278744e-13
aF5.007105841059456e-13
aF2.6534330288541241e-13
aF2.2237767183241886e-13
aF9.5667918031949739e-13
aF1.0191847366058937e-12
aF1.0935696792557792e-12
aF5.5866422599137877e-13
aF5.8175686490358203e-14
aF1.1091128016005314e-12
aF9.7699626167013776e-14
aF6.7457150976224511e-13
aF1.1475265182525618e-12
aF2.013944566670034e-13
aF2.2637447472106942e-12
aF1.0480505352461478e-13
aF1.2359002710127243e-12
aF1.3646861418692424e-12
aF4.5221604239031876e-12
aF2.1405099914773018e-13
aF5.0128790007875068e-12
aF4.2881254103122046e-12
aF2.0587975768648903e-12
aF2.2577495428777183e-12
aF2.4460433678541449e-12
aF2.560618383995461e-12
aF4.4950709821023338e-12
aF3.290701044988964e-13
aF1.1358913809544902e-11
aF4.9382720135326963e-12
aF2.4957813593573559e-13
aF9.8303587492409861e-12
aF5.9063864910058328e-13
aF3.5793590313915087e-13
aF1.2576606422953773e-12
aF5.0741633117468155e-12
aF1.4317436125566019e-12
aF1.3624656958199921e-12
aF2.6023627697213669e-12
aF1.836752971939859e-12
aF1.3638867812915123e-11
aF2.0877521933471144e-11
aF1.7069012869797007e-11
aF1.7852386235972517e-12
aF1.0860645716093131e-11
aF1.5070611425471725e-11
aF8.8533624875708483e-12
aF3.6273206660553114e-12
aF5.830003146911622e-12
aF3.0667024475405924e-11
aF5.2366999625519384e-12
aF1.7600143564777682e-11
aF4.5101700152372359e-11
aF1.7490009440734866e-11
aF3.4425795547576854e-12
aF5.4356519285647664e-12
aF2.12736495086574e-11
aF1.9710455489985179e-11
aF9.7415409072709735e-11
aF2.6219026949547697e-12
aF8.2970075254706899e-11
aF4.7442938466701941e-11
aF3.0837554731988348e-12
aF3.4248159863636829e-12
aF3.2393643323302967e-11
aF4.0344616536458489e-11
aF4.7080561671464238e-11
aF3.1718627724330872e-11
aF7.1622707764619133e-12
aF6.7373662204772725e-11
aF1.3037038115726318e-10
aF1.2947509731020546e-10
aF1.4419754279515473e-10
aF6.4190430748567451e-11
aF1.2759926448779879e-10
aF7.0116357164806686e-11
aF2.3021584638627246e-11
aF7.2901684688986279e-11
aF1.3017142919125035e-11
aF1.3557155398302712e-10
aF1.8215473573945928e-10
aF4.3087311496492475e-11
aF2.7455371309770271e-11
aF1.4151169125398155e-10
aF1.6868284546944778e-10
aF2.8080648917239159e-11
aF1.1880274541908875e-11
aF3.6351366361487191e-11
aF5.6672888604225591e-11
aF4.844196155318059e-10
aF9.1290530690457672e-11
aF3.1940317057888024e-10
aF4.8731862989370711e-10
aF4.9232085075345822e-10
aF1.1539214028744027e-10
aF1.6802914615254849e-10
aF2.5011104298758835e-11
aF6.8780536821577698e-11
aF5.0476955948397517e-10
aF1.2715872799162753e-09
aF2.3896973289083689e-10
aF1.5336354408646002e-10
aF8.2991391536779702e-11
aF5.2546056394930929e-10
aF5.1534243539208546e-10
aF1.6257217794191092e-10
aF1.4529177860822529e-10
aF5.1716142479563132e-10
aF2.1600499167107046e-09
aF2.2123458620626479e-10
aF1.2696546036750078e-09
aF3.092281986027956e-10
aF5.063611752120778e-10
aF2.7011992642661263e-10
aF1.0500116331968457e-09
aF3.5779521567746997e-09
aF4.6998138714116067e-10
aF1.1707470548572019e-09
aF6.5938365878537297e-10
aF1.1168594937771559e-09
aF3.6061464925296605e-10
aF2.034084900515154e-09
aF2.3078428057488054e-09
aF2.325123205082491e-09
aF2.1145751816220582e-10
aF6.6393113229423761e-10
aF1.4642864698544145e-10
aF2.2873791749589145e-09
aF6.0244929045438766e-09
aF4.9094524001702666e-09
aF5.056790541857481e-10
aF9.6779331215657294e-09
aF6.0299498727545142e-09
aF4.4201442506164312e-10
aF4.1845851228572428e-09
aF4.7293724492196504e-09
aF5.0513335736468434e-09
aF3.574314177967608e-10
aF1.6549165593460202e-08
aF8.4728526417165995e-09
aF3.6579876905307174e-09
aF1.8408172763901008e-09
aF8.0199242802336812e-09
aF1.097942003980279e-08
aF1.5646946849301457e-08
aF8.7129592429846525e-10
aF8.2345650298520923e-09
aF8.3546183304861188e-09
aF8.883944246917963e-09
aF2.537854015827179e-08
aF1.6239937394857407e-08
aF6.602931534871459e-09
aF2.3719621822237968e-08
aF5.4460542742162943e-09
aF1.705484464764595e-08
aF1.0837538866326213e-08
aF3.5022821975871921e-08
aF2.236265572719276e-08
aF3.6234268918633461e-09
aF3.3905962482094765e-09
aF2.801243681460619e-09
aF4.1334715206176043e-08
aF6.3024344854056835e-08
aF3.3294782042530462e-08
aF3.7587597034871578e-08
aF3.2756361179053783e-08
aF2.6921043172478676e-09
aF7.3341652751239984e-09
aF8.0239260569214821e-08
aF3.7834979593753815e-08
aF1.3079261407256126e-07
aF2.1944288164377213e-08
aF1.9907020032405853e-08
aF2.3122993297983348e-08
aF8.1054167822003365e-09
aF6.6123902797698975e-08
aF1.3904355000704527e-07
aF1.4464603736996651e-08
aF1.0506482794880867e-08
aF2.8370413929224014e-07
aF6.8510416895151138e-08
aF1.3390672393143177e-07
aF1.9275466911494732e-07
aF1.6202102415263653e-07
aF5.6694261729717255e-08
aF2.465385477989912e-07
aF1.2826058082282543e-07
aF2.6397174224257469e-08
aF2.5780173018574715e-07
aF8.9989043772220612e-08
aF3.2380921766161919e-07
aF3.0733644962310791e-08
aF2.6018824428319931e-07
aF2.6391353458166122e-07
aF2.0838342607021332e-08
aF2.6298221200704575e-07
aF2.9470538720488548e-07
aF4.6973582357168198e-08
aF5.3260009735822678e-07
aF1.1746305972337723e-06
aF1.8307473510503769e-06
aF6.9930683821439743e-07
aF1.6251578927820726e-07
aF5.7858414947986603e-08
aF4.1443854570388794e-08
aF4.319008440473171e-08
aF6.3457991927862167e-07
aF5.1746610552072525e-07
aF1.5385448932647705e-06
aF4.6822242438793182e-07
aF3.5087577998638153e-07
aF1.5371479094028473e-06
aF2.0139850676059723e-07
aF5.788169801235199e-07
aF2.2700987756252289e-07
aF1.0335352271795273e-06
aF1.1450611054897308e-06
aF3.7462450563907623e-07
aF6.9569796323776245e-07
aF1.4482066035270691e-07
aF6.7567452788352966e-07
aF2.5006011128425598e-07
aF1.909211279071954e-07
aF6.2398612499237061e-07
aF7.757917046546936e-07
aF2.1494925023235467e-06
aF6.9355592131614685e-06
aF3.0519440770149231e-06
aF1.3578683137893677e-06
aF5.0850212618414048e-07
aF1.7154961824417114e-06
aF4.7376379370689392e-06
aF1.7518177628517151e-06
aF4.2840838432312012e-07
aF4.6193599700927734e-07
aF1.7369166016578674e-06
aF1.3569369912147522e-06
aF4.2002648115158081e-07
aF2.0060688257217407e-06
aF2.4624168872833252e-05
aF1.7173588275909424e-06
aF2.6516616344451904e-05
aF1.0410323739051819e-05
aF2.7136877179145813e-05
aF9.1809779405593872e-06
aF6.1839819132103457e-07
aF8.4452331066131592e-06
aF6.50063157081604e-07
aF1.3746321272378736e-06
aF3.2663345336914062e-05
aF4.3287873277009226e-06
aF2.0682811737060547e-05
aF1.8410384654998779e-05
aF3.2279640436172485e-05
aF1.8477439951425367e-06
aF1.9073486337006784e-06
aF1.7065554857254028e-05
aF1.7203390598297119e-05
aF3.363192081451416e-05
aF2.7641654014587402e-06
aF2.9802322387695312e-06
aF2.8237700462341309e-06
aF1.2382864952087402e-05
aF5.9232115745544434e-06
aF4.0397048024942706e-05
aF5.6467950344085693e-05
aF7.1287155151367188e-05
aF4.1402876377105713e-05
aF7.2717666625976562e-06
aF7.2121620178222656e-06
aF6.9737434387207031e-06
aF5.3048134986966033e-06
aF8.6367130279541016e-05
aF1.5541911125183105e-05
aF9.0286135673522949e-05
aF0.00014637410640716553
aF8.627772331237793e-05
aF6.6608190536499023e-05
aF0.00020259618759155273
aF4.240870475769043e-05
aF0.00027492642402648926
aF0.00020876526832580566
aF1.4394521713256836e-05
aF6.1184167861938477e-05
aF0.00016981363387458259
aF0.00013279914855957031
aF0.00016760826110839844
aF0.00013759732246398926
aF5.9545040130615234e-05
aF5.4717063903808594e-05
aF0.0005181431770324707
aF5.4240226745605469e-05
aF5.3167343139648438e-05
aF0.00033336878004774917
aF5.8472156524658203e-05
aF0.00032538175582885742
aF5.4478645324707031e-05
aF7.8856945037841797e-05
aF0.00059580802917480469
aF0.00066626071929931641
aF0.0006656646728515625
aF0.00067412853240966797
aF0.00054728985560359433
aF3.1948089599609375e-05
aF0.00027966499328613281
aF0.00058698654174804688
aF0.00061583518981933594
aF0.00059294700622558594
aF0.00093770027160644531
aF0.0010573864019534085
aF0.00022125244140625
aF6.9379806518554688e-05
aF0.001081466703908518
aF0.00021123886108398438
aF0.0012788772583007812
aF0.00056529045104980469
aF0.002544403076171875
aF0.0020790100134036038
aF0.00067234039306640625
aF0.0013918876647949219
aF0.0021181106567382812
aF0.00031423568725585938
aF0.004112720605917275
aF0.00024127960205078125
aF0.0030689239501953125
aF0.0028548240661621094
aF0.0012149810791015625
aF0.0021615028381347656
aF0.00089550111442804337
aF0.010029792785644531
aF0.005825042724609375
aF0.0052738189697265625
aF0.0042285919189453125
aF0.002361297607421875
aF0.000385284423828125
aF0.00076580047607421875
aF0.0004940032958984375
aF0.0047464370727539062
aF0.008701324462890625
aF0.0037822723388671875
aF0.01958465576171875
aF0.0165557861328125
aF0.008419036865234375
aF0.011871337890625
aF0.008800506591796875
aF0.01654052734375
aF0.002674102783203125
aF0.02710723876953125
aF0.0207977294921875
aF0.022899627685546875
aF0.00325775146484375
aF0.03252410888671875
aF0.036777496337890625
aF0.03302764892578125
aF0.00162506103515625
aF0.018951416015625
aF0.0037689208984375
aF0.003692626953125
aF0.0350494384765625
aF0.067779570817947388
aF0.0200347900390625
aF0.0394744873046875
aF0.0029754638671875
aF0.0348358154296875
aF0.0335693359375
aF0.0413970947265625
aF0.10120391845703125
aF0.0022430419921875
aF0.02386474609375
aF0.0059661865234375
aF0.0773162841796875
aF0.021453976631164551
aF0.1607666015625
aF0.00628662109375
aF0.0145416259765625
aF0.0676422119140625
aF0.0224151611328125
aF0.09942626953125
aF0.1392822265625
aF0.006591796875
aF0.012725830078125
aF0.031524658203125
aF0.13165283203125
aF0.042022705078125
aF0.43310546875
aF0.137115478515625
aF0.16461181640625
aF0.326904296875
aF0.034912109375
aF0.3289794921875
aF0.0186767578125
aF0.3135986328125
aF0.300048828125
aF0.27435493469238281
aF0.56048583984375
aF0.65008544921875
aF0.066650390625
aF0.40234375
aF0.0673828125
aF0.03711700439453125
aF0.1248779296875
aF0.0521240234375
aF0.232421875
aF0.679443359375
aF0.052978515625
aF1.0570068359375
aF0.687744140625
aF0.61083984375
aF1.62158203125
aF1.10498046875
aF0.320343017578125
aF0.11328125
aF0.055419921875
aF1.138946533203125
aF2.125
aF0.758544921875
aF0.257080078125
aF1.125244140625
aF0.119140625
aF2.70263671875
aF0.4296875
aF1.478515625
aF0.7275390625
aF1.21484375
aF0.21240234375
aF4.02978515625
aF0.146484375
aF0.69482421875
aF4.455078125
aF5.333984375
aF5.52398681640625
aF9.1376953125
aF12.9169921875
aF4.7978515625
aF0.3193359375
aF0.509765625
aF1.4375
aF0.609375
aF2.521484375
aF4.77734375
aF19.92578125
aF20.693359375
aF1.94921875
aF2.172119140625
aF11.984375
aF0.8271484375
aF4.830078125
aF2.197265625
aF1.3828125
aF4.21484375
aF21.6484375
aF1.17578125
aF3.505859375
aF19.2197265625
aF1.4453125
aF10.1953125
aF17.828125
aF17.908203125
aF34.78125
aF36.1328125
aF47.21875
aF32.578125
aF20.6953125
aF46.265625
aF2.5390625
aF13.7890625
aF81.5234375
aF34.3515625
aF20.59375
aF70.4375
aF31.6875
aF6.78125
aF97.5
aF76.375
aF237.125
aF16.796875
aF81
aF29.875
aF296.34375
aF28.8125
aF93.6875
aF17.75
aF160.75
aF186.1875
aF17.25
aF146.40625
aF45.1875
aF141.8125
a.(lp1
F1.915134717478395e-14
aF6.1464722200810229e-14
aF3.2474023470285829e-14
aF7.7313155877334339e-14
aF7.741030039198904e-14
aF1.8567092308074962e-13
aF1.9789725413943415e-14
aF2.861599845971341e-14
aF1.3267165144270621e-14
aF3.9968028886505635e-15
aF4.4686476741162551e-14
aF7.127631818093505e-14
aF2.5329738306822946e-13
aF2.5462965069777965e-13
aF1.4238610290817633e-14
aF1.2659318038288347e-13
aF1.5248913243226525e-13
aF1.9773072068574038e-13
aF5.5455640080026569e-14
aF1.8199330931167879e-13
aF3.3589797610034111e-13
aF5.1053605787387824e-13
aF2.3536728122053319e-14
aF1.6608936448392342e-13
aF1.1612932837579137e-13
aF5.3607118744025684e-13
aF7.6477713051303908e-13
aF3.4028335704761048e-13
aF2.5085489241405412e-13
aF4.5297099404706387e-14
aF1.8274270985330077e-13
aF6.3060667798708891e-13
aF1.7685852782278744e-13
aF5.007105841059456e-13
aF2.6534330288541241e-13
aF2.2237767183241886e-13
aF9.5667918031949739e-13
aF1.0191847366058937e-12
aF1.0935696792557792e-12
aF5.5866422599137877e-13
aF5.8175686490358203e-14
aF1.1091128016005314e-12
aF9.7699626167013776e-14
aF6.7457150976224511e-13
aF1.1475265182525618e-12
aF2.013944566670034e-13
aF2.2637447472106942e-12
aF1.0480505352461478e-13
aF1.2359002710127243e-12
aF1.3646861418692424e-12
aF4.5221604239031876e-12
aF2.1405099914773018e-13
aF5.0128790007875068e-12
aF4.2881254103122046e-12
aF2.0587975768648903e-12
aF2.2577495428777183e-12
aF2.4460433678541449e-12
aF2.560618383995461e-12
aF4.4950709821023338e-12
aF3.290701044988964e-13
aF1.1358913809544902e-11
aF4.9382720135326963e-12
aF2.4957813593573559e-13
aF9.8303587492409861e-12
aF5.9063864910058328e-13
aF3.5793590313915087e-13
aF1.2576606422953773e-12
aF5.0741633117468155e-12
aF1.4317436125566019e-12
aF1.3624656958199921e-12
aF2.6023627697213669e-12
aF1.836752971939859e-12
aF1.3638867812915123e-11
aF2.0877521933471144e-11
aF1.7069012869797007e-11
aF1.7852386235972517e-12
aF1.0860645716093131e-11
aF1.5070611425471725e-11
aF8.8533624875708483e-12
aF3.6273206660553114e-12
aF5.830003146911622e-12
aF3.0667024475405924e-11
aF5.2366999625519384e-12
aF1.7600143564777682e-11
aF4.5101700152372359e-11
aF1.7490009440734866e-11
aF3.4425795547576854e-12
aF5.4356519285647664e-12
aF2.12736495086574e-11
aF1.9710455489985179e-11
aF9.7415409072709735e-11
aF2.6219026949547697e-12
aF8.2970075254706899e-11
aF4.7442938466701941e-11
aF3.0837554731988348e-12
aF3.4248159863636829e-12
aF3.2393643323302967e-11
aF4.0344616536458489e-11
aF4.7080561671464238e-11
aF3.1718627724330872e-11
aF7.1622707764619133e-12
aF6.7373662204772725e-11
aF1.3037038115726318e-10
aF1.2947509731020546e-10
aF1.4419754279515473e-10
aF6.4190430748567451e-11
aF1.2759926448779879e-10
aF7.0116357164806686e-11
aF2.3021584638627246e-11
aF7.2901684688986279e-11
aF1.3017142919125035e-11
aF1.3557155398302712e-10
aF1.8215473573945928e-10
aF4.3087311496492475e-11
aF2.7455371309770271e-11
aF1.4151169125398155e-10
aF1.6868284546944778e-10
aF2.8080648917239159e-11
aF1.1880274541908875e-11
aF3.6351366361487191e-11
aF5.6672888604225591e-11
aF4.844196155318059e-10
aF9.1290530690457672e-11
aF3.1940317057888024e-10
aF4.8731862989370711e-10
aF4.9232085075345822e-10
aF1.1539214028744027e-10
aF1.6802914615254849e-10
aF2.5011104298758835e-11
aF6.8780536821577698e-11
aF5.0476955948397517e-10
aF1.2715872799162753e-09
aF2.3896973289083689e-10
aF1.5336354408646002e-10
aF8.2991391536779702e-11
aF5.2546056394930929e-10
aF5.1534243539208546e-10
aF1.6257217794191092e-10
aF1.4529177860822529e-10
aF5.1716142479563132e-10
aF2.1600499167107046e-09
aF2.2123458620626479e-10
aF1.2696546036750078e-09
aF3.092281986027956e-10
aF5.063611752120778e-10
aF2.7011992642661263e-10
aF1.0500116331968457e-09
aF3.5779521567746997e-09
aF4.6998138714116067e-10
aF1.1707470548572019e-09
aF6.5938365878537297e-10
aF1.1168594937771559e-09
aF3.6061464925296605e-10
aF2.034084900515154e-09
aF2.3078428057488054e-09
aF2.325123205082491e-09
aF2.1145751816220582e-10
aF6.6393113229423761e-10
aF1.4642864698544145e-10
aF2.2873791749589145e-09
aF6.0244929045438766e-09
aF4.9094524001702666e-09
aF5.056790541857481e-10
aF9.6779331215657294e-09
aF6.0299498727545142e-09
aF4.4201442506164312e-10
aF4.1845851228572428e-09
aF4.7293724492196504e-09
aF5.0513335736468434e-09
aF3.574314177967608e-10
aF1.6549165593460202e-08
aF8.4728526417165995e-09
aF3.6579876905307174e-09
aF1.8408172763901008e-09
aF8.0199242802336812e-09
aF1.097942003980279e-08
aF1.5646946849301457e-08
aF8.7129592429846525e-10
aF8.2345650298520923e-09
aF8.3546183304861188e-09
aF8.883944246917963e-09
aF2.537854015827179e-08
aF1.6239937394857407e-08
aF6.602931534871459e-09
aF2.3719621822237968e-08
aF5.4460542742162943e-09
aF1.705484464764595e-08
aF1.0837538866326213e-08
aF3.5022821975871921e-08
aF2.236265572719276e-08
aF3.6234268918633461e-09
aF3.3905962482094765e-09
aF2.801243681460619e-09
aF4.1334715206176043e-08
aF6.3024344854056835e-08
aF3.3294782042530462e-08
aF3.7587597034871578e-08
aF3.2756361179053783e-08
aF2.6921043172478676e-09
aF7.3341652751239984e-09
aF8.0239260569214821e-08
aF3.7834979593753815e-08
aF1.3079261407256126e-07
aF2.1944288164377213e-08
aF1.9907020032405853e-08
aF2.3122993297983348e-08
aF8.1054167822003365e-09
aF6.6123902797698975e-08
aF1.3904355000704527e-07
aF1.4464603736996651e-08
aF1.0506482794880867e-08
aF2.8370413929224014e-07
aF6.8510416895151138e-08
aF1.3390672393143177e-07
aF1.9275466911494732e-07
aF1.6202102415263653e-07
aF5.6694261729717255e-08
aF2.465385477989912e-07
aF1.2826058082282543e-07
aF2.6397174224257469e-08
aF2.5780173018574715e-07
aF8.9989043772220612e-08
aF3.2380921766161919e-07
aF3.0733644962310791e-08
aF2.6018824428319931e-07
aF2.6391353458166122e-07
aF2.0838342607021332e-08
aF2.6298221200704575e-07
aF2.9470538720488548e-07
aF4.6973582357168198e-08
aF5.3260009735822678e-07
aF1.1746305972337723e-06
aF1.8307473510503769e-06
aF6.9930683821439743e-07
aF1.6251578927820726e-07
aF5.7858414947986603e-08
aF4.1443854570388794e-08
aF4.319008440473171e-08
aF6.3457991927862167e-07
aF5.1746610552072525e-07
aF1.5385448932647705e-06
aF4.6822242438793182e-07
aF3.5087577998638153e-07
aF1.5371479094028473e-06
aF2.0139850676059723e-07
aF5.788169801235199e-07
aF2.2700987756252289e-07
aF1.0335352271795273e-06
aF1.1450611054897308e-06
aF3.7462450563907623e-07
aF6.9569796323776245e-07
aF1.4482066035270691e-07
aF6.7567452788352966e-07
aF2.5006011128425598e-07
aF1.909211279071954e-07
aF6.2398612499237061e-07
aF7.757917046546936e-07
aF2.1494925023235467e-06
aF6.9355592131614685e-06
aF3.0519440770149231e-06
aF1.3578683137893677e-06
aF5.0850212618414048e-07
aF1.7154961824417114e-06
aF4.7376379370689392e-06
aF1.7518177628517151e-06
aF4.2840838432312012e-07
aF4.6193599700927734e-07
aF1.7369166016578674e-06
aF1.3569369912147522e-06
aF4.2002648115158081e-07
aF2.0060688257217407e-06
aF2.4624168872833252e-05
aF1.7173588275909424e-06
aF2.6516616344451904e-05
aF1.0410323739051819e-05
aF2.7136877179145813e-05
aF9.1809779405593872e-06
aF6.1839819132103457e-07
aF8.4452331066131592e-06
aF6.50063157081604e-07
aF1.3746321272378736e-06
aF3.2663345336914062e-05
aF4.3287873277009226e-06
aF2.0682811737060547e-05
aF1.8410384654998779e-05
aF3.2279640436172485e-05
aF1.8477439951425367e-06
aF1.9073486337006784e-06
aF1.7065554857254028e-05
aF1.7203390598297119e-05
aF3.363192081451416e-05
aF2.7641654014587402e-06
aF2.9802322387695312e-06
aF2.8237700462341309e-06
aF1.2382864952087402e-05
aF5.9232115745544434e-06
aF4.0397048024942706e-05
aF5.6467950344085693e-05
aF7.1287155151367188e-05
aF4.1402876377105713e-05
aF7.2717666625976562e-06
aF7.2121620178222656e-06
aF6.9737434387207031e-06
aF5.3048134986966033e-06
aF8.6367130279541016e-05
aF1.5541911125183105e-05
aF9.0286135673522949e-05
aF0.00014637410640716553
aF8.627772331237793e-05
aF6.6608190536499023e-05
aF0.00020259618759155273
aF4.240870475769043e-05
aF0.00027492642402648926
aF0.00020876526832580566
aF1.4394521713256836e-05
aF6.1184167861938477e-05
aF0.00016981363387458259
aF0.00013279914855957031
aF0.00016760826110839844
aF0.00013759732246398926
aF5.9545040130615234e-05
aF5.4717063903808594e-05
aF0.0005181431770324707
aF5.4240226745605469e-05
aF5.3167343139648438e-05
aF0.00033336878004774917
aF5.8472156524658203e-05
aF0.00032538175582885742
aF5.4478645324707031e-05
aF7.8856945037841797e-05
aF0.00059580802917480469
aF0.00066626071929931641
aF0.0006656646728515625
aF0.00067412853240966797
aF0.00054728985560359433
aF3.1948089599609375e-05
aF0.00027966499328613281
aF0.00058698654174804688
aF0.00061583518981933594
aF0.00059294700622558594
aF0.00093770027160644531
aF0.0010573864019534085
aF0.00022125244140625
aF6.9379806518554688e-05
aF0.001081466703908518
aF0.00021123886108398438
aF0.0012788772583007812
aF0.00056529045104980469
aF0.002544403076171875
aF0.0020790100134036038
aF0.00067234039306640625
aF0.0013918876647949219
aF0.0021181106567382812
aF0.00031423568725585938
aF0.004112720605917275
aF0.00024127960205078125
aF0.0030689239501953125
aF0.0028548240661621094
aF0.0012149810791015625
aF0.0021615028381347656
aF0.00089550111442804337
aF0.010029792785644531
aF0.005825042724609375
aF0.0052738189697265625
aF0.0042285919189453125
aF0.002361297607421875
aF0.000385284423828125
aF0.00076580047607421875
aF0.0004940032958984375
aF0.0047464370727539062
aF0.008701324462890625
aF0.0037822723388671875
aF0.01958465576171875
aF0.0165557861328125
aF0.008419036865234375
aF0.011871337890625
aF0.008800506591796875
aF0.01654052734375
aF0.002674102783203125
aF0.02710723876953125
aF0.0207977294921875
aF0.022899627685546875
aF0.00325775146484375
aF0.03252410888671875
aF0.036777496337890625
aF0.03302764892578125
aF0.00162506103515625
aF0.018951416015625
aF0.0037689208984375
aF0.003692626953125
aF0.0350494384765625
aF0.067779570817947388
aF0.0200347900390625
aF0.0394744873046875
aF0.0029754638671875
aF0.0348358154296875
aF0.0335693359375
aF0.0413970947265625
aF0.10120391845703125
aF0.0022430419921875
aF0.02386474609375
aF0.0059661865234375
aF0.0773162841796875
aF0.021453976631164551
aF0.1607666015625
aF0.00628662109375
aF0.0145416259765625
aF0.0676422119140625
aF0.0224151611328125
aF0.09942626953125
aF0.1392822265625
aF0.006591796875
aF0.012725830078125
aF0.031524658203125
aF0.13165283203125
aF0.042022705078125
aF0.43310546875
aF0.137115478515625
aF0.16461181640625
aF0.326904296875
aF0.034912109375
aF0.3289794921875
aF0.0186767578125
aF0.3135986328125
aF0.300048828125
aF0.27435493469238281
aF0.56048583984375
aF0.65008544921875
aF0.066650390625
aF0.40234375
aF0.0673828125
aF0.03711700439453125
aF0.1248779296875
aF0.0521240234375
aF0.232421875
aF0.679443359375
aF0.052978515625
aF1.0570068359375
aF0.687744140625
aF0.61083984375
aF1.62158203125
aF1.10498046875
aF0.320343017578125
aF0.11328125
aF0.055419921875
aF1.138946533203125
aF2.125
aF0.758544921875
aF0.257080078125
aF1.125244140625
aF0.119140625
aF2.70263671875
aF0.4296875
aF1.478515625
aF0.7275390625
aF1.21484375
aF0.21240234375
aF4.02978515625
aF0.146484375
aF0.69482421875
aF4.455078125
aF5.333984375
aF5.52398681640625
aF9.1376953125
aF12.9169921875
aF4.7978515625
aF0.3193359375
aF0.509765625
aF1.4375
aF0.609375
aF2.521484375
aF4.77734375
aF19.92578125
aF20.693359375
aF1.94921875
aF2.172119140625
aF11.984375
aF0.8271484375
aF4.830078125
aF2.197265625
aF1.3828125
aF4.21484375
aF21.6484375
aF1.17578125
aF3.505859375
aF19.2197265625
aF1.4453125
aF10.1953125
aF17.828125
aF17.908203125
aF34.78125
aF36.1328125
aF47.21875
aF32.578125
aF20.6953125
aF46.265625
aF2.5390625
aF13.7890625
aF81.5234375
aF34.3515625
aF20.59375
aF70.4375
aF31.6875
aF6.78125
aF97.5
aF76.375
aF237.125
aF16.796875
aF81
aF29.875
aF296.34375
aF28.8125
aF93.6875
aF17.75
aF160.75
aF186.1875
aF17.25
aF146.40625
aF45.1875
aF141.8125
a.(lp1
F4.8000000000000007
aF4.7999999999999998
aF4.8000000000000016
aF4.8000000000000007
aF4.8000000000000007
aF4.8000000000000007
aF4.7999999999999998
aF4.7999999999999998
aF4.7999999999999998
aF4.8000000000000007
aF4.7999999999999998
aF4.8000000000000025
aF4.8000000000000025
aF4.8000000000000007
aF4.7999999999999998
aF4.7999999999999998
aF4.8000000000000007
aF4.8000000000000043
aF4.7999999999999989
aF4.8000000000000007
aF4.8000000000000007
aF4.8000000000000007
aF4.800000000000006
aF4.8000000000000016
aF4.8000000000000007
aF4.8000000000000016
aF4.7999999999999998
aF4.7999999999999989
aF4.800000000000006
aF4.8000000000000007
aF4.8000000000000034
aF4.8000000000000131
aF4.799999999999998
aF4.7999999999999989
aF4.8000000000000087
aF4.8000000000000016
aF4.7999999999999989
aF4.8000000000000131
aF4.8000000000000007
aF4.8000000000000096
aF4.8000000000000034
aF4.7999999999999998
aF4.8000000000000318
aF4.7999999999999989
aF4.8000000000000034
aF4.7999999999999954
aF4.8000000000000318
aF4.8000000000000007
aF4.7999999999999954
aF4.8000000000000016
aF4.800000000000014
aF4.8000000000000114
aF4.8000000000000451
aF4.8000000000000558
aF4.8000000000000149
aF4.8000000000000069
aF4.8000000000000513
aF4.8000000000000469
aF4.7999999999999989
aF4.8000000000000025
aF4.7999999999999696
aF4.8000000000000007
aF4.8000000000000229
aF4.8000000000000007
aF4.8000000000000966
aF4.8000000000001029
aF4.7999999999999998
aF4.8000000000000966
aF4.8000000000000282
aF4.8000000000000522
aF4.8000000000000282
aF4.8000000000001037
aF4.8000000000003249
aF4.80000000000003
aF4.8000000000000709
aF4.8000000000001153
aF4.8000000000000282
aF4.800000000000006
aF4.7999999999999634
aF4.8000000000001339
aF4.8000000000003391
aF4.8000000000005398
aF4.8000000000001135
aF4.799999999999943
aF4.7999999999998861
aF4.7999999999999696
aF4.8000000000000602
aF4.7999999999999998
aF4.7999999999999092
aF4.8000000000005203
aF4.800000000000832
aF4.8000000000011687
aF4.8000000000000744
aF4.800000000000157
aF4.8000000000002725
aF4.8000000000005398
aF4.7999999999999385
aF4.8000000000003613
aF4.800000000000475
aF4.8000000000004661
aF4.8000000000002272
aF4.8000000000026493
aF4.8000000000017051
aF4.8000000000025143
aF4.8000000000004688
aF4.8000000000017966
aF4.8000000000008178
aF4.8000000000004546
aF4.8000000000005683
aF4.8000000000002414
aF4.800000000001023
aF4.8000000000006366
aF4.8000000000009093
aF4.8000000000037293
aF4.8000000000005683
aF4.8000000000059746
aF4.8000000000008809
aF4.8000000000025924
aF4.8000000000004093
aF4.8000000000025178
aF4.8000000000027283
aF4.8000000000090948
aF4.8000000000106864
aF4.8000000000034557
aF4.8000000000027283
aF4.8000000000016936
aF4.8000000000009093
aF4.8000000000118774
aF4.8000000000035925
aF4.8000000000017096
aF4.8000000000083674
aF4.8000000000039789
aF4.8000000000069125
aF4.8000000000036378
aF4.8000000000022736
aF4.8000000000034193
aF4.8000000000047294
aF4.8000000000040925
aF4.8000000000003862
aF4.8000000000129601
aF4.8000000000036378
aF4.800000000004184
aF4.8000000000072758
aF4.8000000000072758
aF4.8000000000309226
aF4.800000000009458
aF4.8000000000418366
aF4.8000000000036378
aF4.8000000000168255
aF4.8000000000082039
aF4.8000000000072758
aF4.8000000000892031
aF4.8000000000731964
aF4.8000000000227736
aF4.7999999999999998
aF4.8000000000291037
aF4.8000000000145517
aF4.8000000000072758
aF4.8000000000090948
aF4.8000000000305594
aF4.8000000000678478
aF4.8000000001286391
aF4.8000000000462748
aF4.8000000000436556
aF4.8000000001193257
aF4.8000000000163707
aF4.7999999999872669
aF4.8000000002293381
aF4.800000000061118
aF4.8000000000372891
aF4.8000000000727594
aF4.8000000002495655
aF4.8000000000909493
aF4.800000000270666
aF4.7999999999970893
aF4.8000000001178709
aF4.8000000000814911
aF4.8000000000291037
aF4.8000000000873113
aF4.8000000000582075
aF4.8000000003085006
aF4.7999999999941796
aF4.7999999999941796
aF4.7999999999930152
aF4.8000000000582075
aF4.8000000000766887
aF4.8000000004074534
aF4.8000000003259622
aF4.8000000000723233
aF4.8000000000800354
aF4.8000000006781196
aF4.8000000004889447
aF4.8000000002328305
aF4.800000000102445
aF4.8000000013373212
aF4.80000000060536
aF4.7999999997628038
aF4.800000000145519
aF4.800000000515138
aF4.8000000005820764
aF4.8000000002328305
aF4.8000000004522736
aF4.8000000025291225
aF4.8000000027503118
aF4.8000000004656611
aF4.8000000007014023
aF4.8000000009458743
aF4.8000000041909514
aF4.8000000001018632
aF4.8000000005820764
aF4.8000000011059454
aF4.800000001303852
aF4.8000000009313224
aF4.8000000009045465
aF4.8000000004656611
aF4.8000000004656611
aF4.8000000005820764
aF4.8000000000896392
aF4.8000000049185472
aF4.8000000000291037
aF4.800000002421438
aF4.8000000012665982
aF4.8000000027939675
aF4.8000000001210719
aF4.8000000029103829
aF4.8000000041909514
aF4.8000000028521752
aF4.8000000054715199
aF4.8000000046566127
aF4.8000000021536833
aF4.8000000074505804
aF4.8000000335276125
aF4.8000000093132256
aF4.8000000027939675
aF4.8000000124797229
aF4.8000000029103829
aF4.7999999998137355
aF4.7999999998928979
aF4.8000000187382099
aF4.800000001862645
aF4.8000000165775418
aF4.8000000156462193
aF4.8000000183936207
aF4.8000000121071933
aF4.8000000037252901
aF4.8000000074505804
aF4.8000000095646822
aF4.8000000150874254
aF4.8000000074505804
aF4.800000029057264
aF4.8000000167638062
aF4.8000000006519254
aF4.8000000074505804
aF4.799999991804361
aF4.800000014901161
aF4.7999999999999998
aF4.8000000949949024
aF4.8000000938773155
aF4.8000000190921126
aF4.800000072270632
aF4.8000000158324836
aF4.8000000881031157
aF4.7999999833107001
aF4.8000000307336448
aF4.8000000307336448
aF4.8000000774860379
aF4.8000000998377796
aF4.8000000223517416
aF4.800000014901161
aF4.8000000429153449
aF4.8000000286847371
aF4.8000000485777861
aF4.8000000596046446
aF4.8000003188848499
aF4.8000001192092894
aF4.8000000298023222
aF4.8000001098960636
aF4.800000137090688
aF4.8000000038743025
aF4.8000000689178703
aF4.8000002466142293
aF4.8000003457069393
aF4.8000003527104953
aF4.8000001192092894
aF4.8000007271766663
aF4.8000001512467856
aF4.8000003516673964
aF4.8000002659857337
aF4.8000001937150953
aF4.8000001490116118
aF4.8000012755393984
aF4.8000009417533107
aF4.8000004291534424
aF4.8000014972685907
aF4.8000004842877386
aF4.8000006389617873
aF4.800000429153414
aF4.8000005707144737
aF4.8000007629393764
aF4.8000005379319193
aF4.8000010251998901
aF4.8000008940696715
aF4.8000020742416378
aF4.8000007909536873
aF4.800001859664917
aF4.8000029802322386
aF4.8000009059906006
aF4.8000020295381542
aF4.8000006556510924
aF4.8000000309944664
aF4.8000036358833311
aF4.8000026464462282
aF4.800003623962402
aF4.8000051796436312
aF4.8000013649463655
aF4.8000019669532774
aF4.8000059425842672
aF4.8000005066394804
aF4.8000022411346439
aF4.8000023543834685
aF4.800002861022949
aF4.8000021457672117
aF4.8000128149986265
aF4.8000087738037109
aF4.8000018477439879
aF4.8000109672546385
aF4.8000043511390684
aF4.8000023245811461
aF4.8000095939581229
aF4.8000025629997252
aF4.8000161170959474
aF4.8000156402587892
aF4.8000060796737669
aF4.8000044107437132
aF4.8000228166507446
aF4.8000019073486326
aF4.8000101327896116
aF4.8000058412551878
aF4.8000019073486326
aF4.8000261068344114
aF4.8000174045562742
aF4.8000061034865205
aF4.8000076293945311
aF4.8000085830688475
aF4.800031757354736
aF4.8000114440917967
aF4.8000143051147459
aF4.8000078678131102
aF4.8000047683715819
aF4.8000190735154318
aF4.8000076293945311
aF4.799993324279785
aF4.8000524902865287
aF4.8000720024108885
aF4.8000152587890623
aF4.8000778198242191
aF4.8000038147903972
aF4.8000248908996586
aF4.7999992371536786
aF4.7999992371536786
aF4.8002082829363646
aF4.8000732421874996
aF4.8000152587890623
aF4.8001251220703125
aF4.8002082809806099
aF4.8000218200832609
aF4.8000134279429885
aF4.8000305175781248
aF4.8000171661376951
aF4.8000134279429885
aF4.8001831054687498
aF4.8001757769585698
aF4.8000381469726561
aF4.800113068461398
aF4.7999696358442101
aF4.8001220703124998
aF4.8004119873046873
aF4.8000381469726561
aF4.8000705718994139
aF4.8002174377441404
aF4.8000537142751973
aF4.800240634441213
aF4.8001220703124998
aF4.8001220703124998
aF4.8000610351562498
aF4.7999926791189473
aF4.8002050770521683
aF4.80023193359375
aF4.8001907348632811
aF4.8001564025878904
aF4.8003173828124996
aF4.8006836414337162
aF4.8011230468750004
aF4.8005615234374996
aF4.8002670288085936
aF4.8000228881835936
aF4.8003051757812498
aF4.8003662109374998
aF4.8013915062067083
aF4.8003027477251363
aF4.8004882812499998
aF4.7999707565203327
aF4.8006835937499996
aF4.8011669960020109
aF4.8007324218749998
aF4.8002148971453327
aF4.8002593994140623
aF4.8008912086254041
aF4.8002301559343952
aF4.8002198219066541
aF4.8053989492324778
aF4.805908203125
aF4.8037879642961734
aF4.8036743164062505
aF4.8010070800781248
aF4.8004299010396325
aF4.8017700195312498
aF4.8004398344085528
aF4.8012943265960528
aF4.8029296874999998
aF4.8045166015624998
aF4.8019531249999998
aF4.8032405999188867
aF4.8019531249999998
aF4.8125732421874998
aF4.8039215087890623
aF4.8035156250000002
aF4.8010375976562498
aF4.8063476562499998
aF4.8130899398053275
aF4.8013427734374998
aF4.8045898437499996
aF4.8085008142193377
aF4.7999328494304336
aF4.8043945312499998
aF4.8119384765625002
aF4.8095346626365059
aF4.8096191406250002
aF4.8157226562500002
aF4.8003662109374998
aF4.8146484374999998
aF4.84375
aF4.8171569824218743
aF4.8087890624999998
aF4.837890625
aF4.8528320312500002
aF4.8099121093749995
aF4.8488281249999998
aF4.8063808167834896
aF4.8111083034411477
aF4.8991210937499998
aF4.8351562499999998
aF4.8088824728260864
aF4.8227531492248064
aF4.8273437499999998
aF4.8765625000000004
aF4.8312499999999998
aF4.8248476501560065
aF4.8172809103260867
aF4.8116168478260866
aF4.84375
aF4.8195312499999998
aF4.9900390624999993
aF4.8195312499999998
aF4.8634765624999998
aF4.9962890624999998
aF4.7993176118827163
aF4.8937499999999998
aF4.8156249999999998
aF4.9796874999999998
aF4.9093749999999998
aF4.9437499999999996
aF4.8624999999999998
aF4.9093749999999998
aF5.0531249999999996
aF4.9028046398628042
aF5.1906249999999998
aF4.8322265624999998
aF4.9144531249999996
aF4.9303067835365857
aF5.0812500000000007
aF5.6875
aF5.3940586419753087
aF5.515625
aF4.9855468749999998
aF4.9406249999999998
aF5.2374999999999998
aF4.9249999999999998
aF5.5343749999999998
aF5.779296875
aF6.0749999999999993
aF4.8624999999999998
aF5.1124999999999998
aF5.9625000000000004
aF5.3125
aF5.2374999999999998
aF5.0578124999999998
aF5.122727272727273
aF6.2374999999999998
aF5.2828125000000004
aF5.7999999999999998
aF5.1124999999999998
aF6.5499999999999998
aF5.4562499999999998
aF5.8499999999999996
aF5.8562500000000002
aF7.125
aF6.7749999999999995
aF6.3125
aF5.0499999999999998
aF11.15
aF8.4642857142857153
aF7.9499999999999993
aF6.4642857142857144
aF8.9428571428571431
aF6.2625000000000002
aF8.2142857142857153
aF11.433333333333334
aF7.7000000000000002
aF8.4285714285714288
a.