(lp1
F1.7763568394002505e-14
aF1.7985612998927536e-14
aF3.7192471324942744e-14
aF1.9428902930940239e-14
aF1.1768364061026659e-14
aF1.9206858326015208e-14
aF1.3766765505351944e-14
aF2.7500224319965128e-13
aF2.3570034812792073e-13
aF4.9782400424192019e-13
aF5.3201887340037501e-13
aF8.6819440525687241e-14
aF2.9309887850104133e-14
aF5.1225690356204723e-13
aF2.7977620220553948e-14
aF2.042810365310288e-14
aF3.1530333899354446e-14
aF9.1038288019262836e-14
aF2.1316282072803006e-14
aF4.7783998979866737e-13
aF5.3290705182007514e-14
aF4.1744385725905886e-14
aF1.7674750552032492e-13
aF5.0626169922907138e-14
aF1.0080825063596421e-12
aF2.0694557179012918e-13
aF8.1712414612411521e-14
aF1.0023093466315913e-12
aF1.1319833959078096e-12
aF1.0915712778114539e-12
aF1.0302869668521453e-13
aF1.9371171333659731e-12
aF1.5099033134902129e-13
aF6.6791017161449417e-13
aF1.1191048088221578e-13
aF2.1138646388863021e-13
aF1.5276668818842154e-13
aF1.9095836023552692e-12
aF1.9060308886764687e-12
aF1.75859327100625e-13
aF3.2329694477084558e-13
aF4.3218761902608094e-12
aF4.0145664570445671e-13
aF6.6968652845389523e-13
aF4.1175951537297806e-12
aF4.6540549192286562e-13
aF1.5631940186722214e-13
aF4.3769432522822171e-12
aF2.9487523534044158e-13
aF4.723332835965266e-12
aF7.709388682997087e-13
aF6.2527760746888816e-13
aF4.8316906031686914e-13
aF4.3343106881366152e-13
aF5.6132876125047925e-13
aF1.2505552149377763e-12
aF9.0807361630140804e-12
aF1.4921397450962104e-11
aF1.371347480016995e-12
aF8.7112539404188283e-12
aF1.1652900866465643e-12
aF3.0098590286797844e-11
aF6.0396132539608556e-13
aF6.5369931689929217e-13
aF3.2258640203508678e-12
aF1.7053025658242509e-12
aF2.7569058147491887e-12
aF1.553246420371579e-11
aF1.5944578990456651e-11
aF1.5276668818842154e-11
aF2.5153212845907547e-12
aF3.0524915928253904e-11
aF5.9117155615240335e-12
aF3.177547114319168e-11
aF1.4921397450962104e-12
aF1.9042545318370685e-12
aF5.7411853049416871e-12
aF3.1292302082874825e-11
aF3.1093350116862036e-11
aF2.5579538487364641e-12
aF1.3358203432289883e-11
aF1.1084466677857589e-11
aF6.4488858697586719e-11
aF6.3380412029800962e-11
aF1.2357759260339662e-10
aF5.1727511163335552e-12
aF6.338041202980104e-11
aF6.889422365929934e-11
aF1.0800249583553962e-11
aF6.7899463829235174e-11
aF1.2857981346314773e-10
aF1.4370016288012266e-10
aF1.3665157894138247e-10
aF3.8539837987627834e-11
aF1.5614887161064055e-10
aF1.2221335055073827e-11
aF1.393800630467013e-10
aF6.2527760746888816e-12
aF1.3073986337985926e-10
aF1.2585132935782894e-10
aF1.9781509763561189e-11
aF2.5534063752274991e-10
aF1.3415046851150692e-11
aF2.4976998247439042e-10
aF4.0017766878008842e-11
aF7.8443918027916715e-11
aF2.5011104298755733e-11
aF4.8430592869408429e-11
aF5.0931703299290702e-11
aF7.5033312896269888e-11
aF7.9126039054244757e-11
aF5.6388671509921551e-11
aF3.1377567211166024e-11
aF7.0485839387401938e-11
aF1.0186340659857623e-10
aF5.0249582272969174e-11
aF3.8198777474462986e-11
aF1.1777956387959421e-10
aF5.5706550483591855e-11
aF6.070877134334296e-11
aF7.8216544352577708e-11
aF5.9117155615240335e-11
aF1.0331859812140465e-09
aF9.9089447758161193e-10
aF5.3660187404602766e-11
aF9.8316377261654701e-10
aF2.0463630789891547e-10
aF1.0140865924768812e-10
aF1.2369127944111824e-10
aF4.9112713895738952e-11
aF1.9790604710578918e-09
aF1.0732037480920553e-10
aF1.4006218407305742e-10
aF1.309672370553149e-10
aF4.1836756281554699e-10
aF1.4824763638904024e-10
aF1.9972503650935886e-09
aF9.304130799141291e-10
aF1.6370904631912708e-10
aF3.8744474295526743e-10
aF5.0749804358942631e-10
aF2.1100277081134582e-10
aF4.1109160520147027e-10
aF4.594767233357046e-09
aF2.1282176021655927e-10
aF2.2191670723259449e-10
aF4.8839865485206246e-09
aF1.5279510989785194e-10
aF3.7471181713044643e-10
aF2.673914423212409e-10
aF1.598527887836141e-08
aF1.273292582482523e-09
aF1.3351382222026587e-09
aF8.1636244431138039e-09
aF4.6566128730773926e-10
aF2.459273673594845e-09
aF5.6024873629212379e-10
aF2.8012436814775596e-10
aF5.0931703299622795e-10
aF4.5474735088646412e-10
aF1.6174453776330179e-08
aF1.7549609765410423e-08
aF3.0959199648350477e-08
aF3.2676325645297766e-08
aF1.6108970157802528e-08
aF2.8376234695315361e-09
aF1.9346771296113729e-08
aF6.9849193096330295e-10
aF5.3842086344999703e-10
aF6.1118043959225812e-10
aF3.303284756839953e-08
aF2.0081643015146255e-09
aF5.3405528888106346e-09
aF2.2118911147388665e-09
aF2.0954757928848267e-09
aF5.3842086344974292e-09
aF3.9261067286242239e-08
aF1.2223608791828156e-09
aF2.4156179279088974e-09
aF2.8230715543031759e-09
aF5.7625584305044241e-09
aF5.5879354479097115e-09
aF1.1175870895385742e-08
aF1.2863893061876297e-08
aF3.4924596548080444e-09
aF2.2700987756387814e-09
aF5.9662852436304092e-09
aF3.7834979593753815e-09
aF4.9476511781326206e-09
aF1.0739313438534737e-08
aF6.0535967350006104e-09
aF2.5064218789339066e-07
aF8.3819031715664117e-09
aF7.4505805969238281e-09
aF8.6147338151931763e-09
aF1.1117663234526485e-08
aF2.1536834538416833e-08
aF1.3061799109014612e-07
aF1.4639226719737074e-07
aF1.2846430763645625e-07
aF1.3853423297405243e-08
aF4.7497451312761979e-08
aF2.6857014745473862e-07
aF2.5006011128425598e-07
aF2.3748725652694702e-08
aF2.1653249859809875e-08
aF1.1175870895385742e-08
aF4.9825757741928101e-08
aF2.5378540158358526e-07
aF8.8475644588470459e-09
aF9.0105459094047546e-08
aF1.7695128948919114e-08
aF3.2363459497378178e-08
aF1.9557774066925049e-08
aF1.0710209608945365e-07
aF1.7695128917694092e-08
aF8.9872628450393677e-08
aF1.6298145055770874e-08
aF2.6309862734621992e-08
aF2.4214386940002441e-08
aF4.3306499719619751e-08
aF1.0002404451370239e-06
aF9.9791213872824081e-07
aF1.0430812835693359e-06
aF6.1467289945438264e-08
aF1.0197982192109014e-06
aF7.543712854385376e-08
aF1.8766149878501892e-07
aF2.1047890186309814e-07
aF1.0244548322158042e-07
aF6.1467289980132733e-08
aF3.9692968130111694e-06
aF2.0116567611694336e-06
aF9.3132257461547852e-08
aF2.2724270820617676e-06
aF1.0058283805847168e-07
aF2.1141022443771362e-06
aF3.9674341678619385e-07
aF2.4028122425079346e-07
aF3.8184225559256303e-07
aF2.5704503059387207e-07
aF4.0866434574127197e-06
aF3.5390257860368202e-07
aF2.905726432800293e-07
aF2.84984707860092e-07
aF3.9674341687501169e-06
aF1.6950070858001709e-07
aF6.6496431830320724e-07
aF4.1350722312927246e-06
aF2.2165477275848389e-07
aF1.7769634728104222e-06
aF1.8551945686340332e-06
aF2.4586915969848633e-07
aF2.1979212763145739e-06
aF6.1839819043285615e-07
aF3.7997961044311523e-07
aF6.9662928581237793e-07
aF4.5448541641235352e-07
aF4.2468309469079202e-07
aF9.03382897465832e-06
aF6.7055225372314453e-07
aF1.2964010238647461e-06
aF2.9429793464430531e-06
aF1.2814998626708984e-06
aF2.6971101760864258e-06
aF6.631016731262207e-07
aF2.9057264621101808e-06
aF2.6300549507141113e-06
aF2.4139881151796772e-06
aF3.2261014055751797e-06
aF3.2812356984379676e-05
aF1.3113021921640211e-06
aF1.0132789611816406e-06
aF9.089708342457925e-06
aF6.3180923497441199e-06
aF2.3245812599270721e-06
aF3.6627054218030253e-05
aF9.3877315521240234e-07
aF3.1843781474812094e-05
aF1.1920928955078125e-06
aF6.7591667203714678e-05
aF1.4811754681653966e-05
aF2.6226044411714611e-06
aF7.3522329358977068e-05
aF1.3530254392435381e-05
aF5.7220459268592094e-06
aF4.7087669727829962e-06
aF3.2186508178710938e-06
aF1.0699033737182617e-05
aF6.6101551077224485e-05
aF8.7022785919543821e-06
aF0.00014352798473282746
aF0.00013321638107299805
aF1.0907651130764862e-05
aF7.152557373046875e-06
aF8.3446502685546875e-06
aF0.00025749206656655588
aF5.9008598611853813e-06
aF9.2387203949328978e-06
aF7.4505824585457958e-06
aF0.00055909156799316406
aF5.5551528930664062e-05
aF1.239776611328125e-05
aF9.1791152954101562e-06
aF0.0002715587688726373
aF0.00026178359985351562
aF1.5020370483398438e-05
aF0.00028324127197265625
aF7.62939453125e-06
aF1.3470649719238281e-05
aF2.4318695068359375e-05
aF3.0994415283203125e-05
aF0.00057888031005859375
aF2.5272369384765625e-05
aF0.000530242919921875
aF3.0517578352373675e-05
aF5.1975250245028803e-05
aF0.00052213668823242188
aF0.00053763389587402344
aF0.00058412555155484824
aF8.487701416015625e-05
aF5.6743680033832788e-05
aF9.059906005859375e-05
aF8.296966552734375e-05
aF7.9631806343627431e-05
aF0.00020313262939453125
aF0.0010199547396041453
aF4.9591064453125e-05
aF0.0010299682617755934
aF9.6321105964136677e-05
aF0.0001850128173828125
aF0.00016975408652797341
aF0.00034427642822265625
aF0.0023460388765670359
aF0.0020732879638671875
aF0.00013732923252973706
aF0.0021648407055181451
aF0.0021677017211914062
aF0.00016307830810546875
aF0.0003719329833984375
aF0.00414276123046875
aF0.000179290771484375
aF0.00018310546875
aF0.0041275024415199368
aF0.004222869873046875
aF0.00024414085783064365
aF8.392333984375e-05
aF0.00035858165938407183
aF0.000362396240234375
aF0.00418853759765625
aF0.008190155029296875
aF0.00026702880859375
aF0.00045776367232974735
aF0.00139617919921875
aF0.0010681157000362873
aF0.000629425048828125
aF0.00051116955000907183
aF0.00061798188835382462
aF0.0081291203387081623
aF0.00077056884765625
aF0.0014801025536144152
aF0.00074768112972378731
aF0.019073486328125
aF0.0005950927734375
aF0.01671600341796875
aF0.0033569410443305969
aF0.018890386447310448
aF0.016326963901519775
aF0.019073502160608768
aF0.022659316666249651
aF0.0062255933880805969
aF0.0015716552734375
aF0.0030823350243736058
aF0.0020904615812469274
aF0.0025329739437438548
aF0.035125792026519775
aF0.0019073635339736938
aF0.0014801025390625
aF0.002166748046875
aF0.00164794921875
aF0.0056762695603538305
aF0.013885527849197388
aF0.067657470703125
aF0.0029296875
aF0.0038452446460723877
aF0.0085449814796447754
aF0.00238037109375
aF0.06500244140625
aF0.066955655813217163
aF0.00286865234375
aF0.0025634765625
aF0.1297607421875
aF0.0093994140625
aF0.1414794921875
aF0.022216916084289551
aF0.021606683731079102
aF0.00885009765625
aF0.13726902054622769
aF0.13232421875
aF0.0062255859375
aF0.046265602111816406
aF0.0078125
aF0.0106201171875
aF0.086915016174316406
aF0.011719822883605957
aF0.045654296875
aF0.263671875
aF0.26855659484863281
aF0.020265579223632812
aF0.010009765625
aF0.57033157348632812
aF0.02099609375
aF0.52392578125
aF0.54736566543579102
aF0.035156264901161194
aF0.0915679931640625
aF0.044433597475290298
aF0.53955459594726562
aF0.558837890625
aF0.58642578125
aF0.0546875
aF0.37649917602539062
aF1.08203125
aF0.041015625
aF0.036621101200580597
aF0.0751953125
aF0.23242950439453125
aF1.0928955674171448
aF0.069824233651161194
aF1.06591796875
aF2.1171875
aF2.1123047173023224
aF2.1425857543945312
aF0.360595703125
aF0.05859375
aF2.162109375
aF0.138671875
aF2.14501953125
aF2.24365234375
aF2.1357421875
aF1.2734375
aF0.2383120059967041
aF0.78515625
aF0.228515625
aF0.15625
aF4.8028564453125
aF8.2890625
aF4.9630136489868164
aF4.72265625
aF0.16796875
aF10.4775390625
aF0.6171875
aF0.4453125
aF8.3046875
aF0.31640625
aF0.6171875
aF1.70556640625
aF8.5390625
aF0.35595893859863281
aF0.40625
aF1.57421875
aF0.78125
aF48.8125
aF33.25
aF1.78125
aF17.78125
aF3.453125
aF5.12890625
aF1.5
aF1.50439453125
aF37.546875
aF67.722686767578125
aF2.921875
aF38.34765625
aF6.625
aF2.0859375
aF34.23443603515625
aF2.25
aF1.96875
aF1.8828201293945312
aF11.015625
aF74.9375
aF66.84375
aF81.4375
aF3.0625
aF5.34375
aF9.3125
aF4.34375
aF68.21875
aF67.53125
aF7.75
aF135.625
aF152.375
aF6
aF28.90625
aF6.0625
aF19.5
aF163.203125
aF137.1875
aF26.876953125
aF7.5
aF11.75
aF64.75
aF305.75048828125
aF12
aF47
aF308.5
aF7.75
aF19
aF270.5
aF45
aF45
aF137.5
aF17
aF604.501953125
aF51
aF53.515625
aF38.5
aF114.0078125
aF18.5
a.(lp1
F1.7763568394002505e-14
aF1.7985612998927536e-14
aF3.7192471324942744e-14
aF1.9428902930940239e-14
aF1.1768364061026659e-14
aF1.9206858326015208e-14
aF1.3766765505351944e-14
aF2.7500224319965128e-13
aF2.3570034812792073e-13
aF4.9782400424192019e-13
aF5.3201887340037501e-13
aF8.6819440525687241e-14
aF2.9309887850104133e-14
aF5.1225690356204723e-13
aF2.7977620220553948e-14
aF2.042810365310288e-14
aF3.1530333899354446e-14
aF9.1038288019262836e-14
aF2.1316282072803006e-14
aF4.7783998979866737e-13
aF5.3290705182007514e-14
aF4.1744385725905886e-14
aF1.7674750552032492e-13
aF5.0626169922907138e-14
aF1.0080825063596421e-12
aF2.0694557179012918e-13
aF8.1712414612411521e-14
aF1.0023093466315913e-12
aF1.1319833959078096e-12
aF1.0915712778114539e-12
aF1.0302869668521453e-13
aF1.9371171333659731e-12
aF1.5099033134902129e-13
aF6.6791017161449417e-13
aF1.1191048088221578e-13
aF2.1138646388863021e-13
aF1.5276668818842154e-13
aF1.9095836023552692e-12
aF1.9060308886764687e-12
aF1.75859327100625e-13
aF3.2329694477084558e-13
aF4.3218761902608094e-12
aF4.0145664570445671e-13
aF6.6968652845389523e-13
aF4.1175951537297806e-12
aF4.6540549192286562e-13
aF1.5631940186722214e-13
aF4.3769432522822171e-12
aF2.9487523534044158e-13
aF4.723332835965266e-12
aF7.709388682997087e-13
aF6.2527760746888816e-13
aF4.8316906031686914e-13
aF4.3343106881366152e-13
aF5.6132876125047925e-13
aF1.2505552149377763e-12
aF9.0807361630140804e-12
aF1.4921397450962104e-11
aF1.371347480016995e-12
aF8.7112539404188283e-12
aF1.1652900866465643e-12
aF3.0098590286797844e-11
aF6.0396132539608556e-13
aF6.5369931689929217e-13
aF3.2258640203508678e-12
aF1.7053025658242509e-12
aF2.7569058147491887e-12
aF1.553246420371579e-11
aF1.5944578990456651e-11
aF1.5276668818842154e-11
aF2.5153212845907547e-12
aF3.0524915928253904e-11
aF5.9117155615240335e-12
aF3.177547114319168e-11
aF1.4921397450962104e-12
aF1.9042545318370685e-12
aF5.7411853049416871e-12
aF3.1292302082874825e-11
aF3.1093350116862036e-11
aF2.5579538487364641e-12
aF1.3358203432289883e-11
aF1.1084466677857589e-11
aF6.4488858697586719e-11
aF6.3380412029800962e-11
aF1.2357759260339662e-10
aF5.1727511163335552e-12
aF6.338041202980104e-11
aF6.889422365929934e-11
aF1.0800249583553962e-11
aF6.7899463829235174e-11
aF1.2857981346314773e-10
aF1.4370016288012266e-10
aF1.3665157894138247e-10
aF3.8539837987627834e-11
aF1.5614887161064055e-10
aF1.2221335055073827e-11
aF1.393800630467013e-10
aF6.2527760746888816e-12
aF1.3073986337985926e-10
aF1.2585132935782894e-10
aF1.9781509763561189e-11
aF2.5534063752274991e-10
aF1.3415046851150692e-11
aF2.4976998247439042e-10
aF4.0017766878008842e-11
aF7.8443918027916715e-11
aF2.5011104298755733e-11
aF4.8430592869408429e-11
aF5.0931703299290702e-11
aF7.5033312896269888e-11
aF7.9126039054244757e-11
aF5.6388671509921551e-11
aF3.1377567211166024e-11
aF7.0485839387401938e-11
aF1.0186340659857623e-10
aF5.0249582272969174e-11
aF3.8198777474462986e-11
aF1.1777956387959421e-10
aF5.5706550483591855e-11
aF6.070877134334296e-11
aF7.8216544352577708e-11
aF5.9117155615240335e-11
aF1.0331859812140465e-09
aF9.9089447758161193e-10
aF5.3660187404602766e-11
aF9.8316377261654701e-10
aF2.0463630789891547e-10
aF1.0140865924768812e-10
aF1.2369127944111824e-10
aF4.9112713895738952e-11
aF1.9790604710578918e-09
aF1.0732037480920553e-10
aF1.4006218407305742e-10
aF1.309672370553149e-10
aF4.1836756281554699e-10
aF1.4824763638904024e-10
aF1.9972503650935886e-09
aF9.304130799141291e-10
aF1.6370904631912708e-10
aF3.8744474295526743e-10
aF5.0749804358942631e-10
aF2.1100277081134582e-10
aF4.1109160520147027e-10
aF4.594767233357046e-09
aF2.1282176021655927e-10
aF2.2191670723259449e-10
aF4.8839865485206246e-09
aF1.5279510989785194e-10
aF3.7471181713044643e-10
aF2.673914423212409e-10
aF1.598527887836141e-08
aF1.273292582482523e-09
aF1.3351382222026587e-09
aF8.1636244431138039e-09
aF4.6566128730773926e-10
aF2.459273673594845e-09
aF5.6024873629212379e-10
aF2.8012436814775596e-10
aF5.0931703299622795e-10
aF4.5474735088646412e-10
aF1.6174453776330179e-08
aF1.7549609765410423e-08
aF3.0959199648350477e-08
aF3.2676325645297766e-08
aF1.6108970157802528e-08
aF2.8376234695315361e-09
aF1.9346771296113729e-08
aF6.9849193096330295e-10
aF5.3842086344999703e-10
aF6.1118043959225812e-10
aF3.303284756839953e-08
aF2.0081643015146255e-09
aF5.3405528888106346e-09
aF2.2118911147388665e-09
aF2.0954757928848267e-09
aF5.3842086344974292e-09
aF3.9261067286242239e-08
aF1.2223608791828156e-09
aF2.4156179279088974e-09
aF2.8230715543031759e-09
aF5.7625584305044241e-09
aF5.5879354479097115e-09
aF1.1175870895385742e-08
aF1.2863893061876297e-08
aF3.4924596548080444e-09
aF2.2700987756387814e-09
aF5.9662852436304092e-09
aF3.7834979593753815e-09
aF4.9476511781326206e-09
aF1.0739313438534737e-08
aF6.0535967350006104e-09
aF2.5064218789339066e-07
aF8.3819031715664117e-09
aF7.4505805969238281e-09
aF8.6147338151931763e-09
aF1.1117663234526485e-08
aF2.1536834538416833e-08
aF1.3061799109014612e-07
aF1.4639226719737074e-07
aF1.2846430763645625e-07
aF1.3853423297405243e-08
aF4.7497451312761979e-08
aF2.6857014745473862e-07
aF2.5006011128425598e-07
aF2.3748725652694702e-08
aF2.1653249859809875e-08
aF1.1175870895385742e-08
aF4.9825757741928101e-08
aF2.5378540158358526e-07
aF8.8475644588470459e-09
aF9.0105459094047546e-08
aF1.7695128948919114e-08
aF3.2363459497378178e-08
aF1.9557774066925049e-08
aF1.0710209608945365e-07
aF1.7695128917694092e-08
aF8.9872628450393677e-08
aF1.6298145055770874e-08
aF2.6309862734621992e-08
aF2.4214386940002441e-08
aF4.3306499719619751e-08
aF1.0002404451370239e-06
aF9.9791213872824081e-07
aF1.0430812835693359e-06
aF6.1467289945438264e-08
aF1.0197982192109014e-06
aF7.543712854385376e-08
aF1.8766149878501892e-07
aF2.1047890186309814e-07
aF1.0244548322158042e-07
aF6.1467289980132733e-08
aF3.9692968130111694e-06
aF2.0116567611694336e-06
aF9.3132257461547852e-08
aF2.2724270820617676e-06
aF1.0058283805847168e-07
aF2.1141022443771362e-06
aF3.9674341678619385e-07
aF2.4028122425079346e-07
aF3.8184225559256303e-07
aF2.5704503059387207e-07
aF4.0866434574127197e-06
aF3.5390257860368202e-07
aF2.905726432800293e-07
aF2.84984707860092e-07
aF3.9674341687501169e-06
aF1.6950070858001709e-07
aF6.6496431830320724e-07
aF4.1350722312927246e-06
aF2.2165477275848389e-07
aF1.7769634728104222e-06
aF1.8551945686340332e-06
aF2.4586915969848633e-07
aF2.1979212763145739e-06
aF6.1839819043285615e-07
aF3.7997961044311523e-07
aF6.9662928581237793e-07
aF4.5448541641235352e-07
aF4.2468309469079202e-07
aF9.03382897465832e-06
aF6.7055225372314453e-07
aF1.2964010238647461e-06
aF2.9429793464430531e-06
aF1.2814998626708984e-06
aF2.6971101760864258e-06
aF6.631016731262207e-07
aF2.9057264621101808e-06
aF2.6300549507141113e-06
aF2.4139881151796772e-06
aF3.2261014055751797e-06
aF3.2812356984379676e-05
aF1.3113021921640211e-06
aF1.0132789611816406e-06
aF9.089708342457925e-06
aF6.3180923497441199e-06
aF2.3245812599270721e-06
aF3.6627054218030253e-05
aF9.3877315521240234e-07
aF3.1843781474812094e-05
aF1.1920928955078125e-06
aF6.7591667203714678e-05
aF1.4811754681653966e-05
aF2.6226044411714611e-06
aF7.3522329358977068e-05
aF1.3530254392435381e-05
aF5.7220459268592094e-06
aF4.7087669727829962e-06
aF3.2186508178710938e-06
aF1.0699033737182617e-05
aF6.6101551077224485e-05
aF8.7022785919543821e-06
aF0.00014352798473282746
aF0.00013321638107299805
aF1.0907651130764862e-05
aF7.152557373046875e-06
aF8.3446502685546875e-06
aF0.00025749206656655588
aF5.9008598611853813e-06
aF9.2387203949328978e-06
aF7.4505824585457958e-06
aF0.00055909156799316406
aF5.5551528930664062e-05
aF1.239776611328125e-05
aF9.1791152954101562e-06
aF0.0002715587688726373
aF0.00026178359985351562
aF1.5020370483398438e-05
aF0.00028324127197265625
aF7.62939453125e-06
aF1.3470649719238281e-05
aF2.4318695068359375e-05
aF3.0994415283203125e-05
aF0.00057888031005859375
aF2.5272369384765625e-05
aF0.000530242919921875
aF3.0517578352373675e-05
aF5.1975250245028803e-05
aF0.00052213668823242188
aF0.00053763389587402344
aF0.00058412555155484824
aF8.487701416015625e-05
aF5.6743680033832788e-05
aF9.059906005859375e-05
aF8.296966552734375e-05
aF7.9631806343627431e-05
aF0.00020313262939453125
aF0.0010199547396041453
aF4.9591064453125e-05
aF0.0010299682617755934
aF9.6321105964136677e-05
aF0.0001850128173828125
aF0.00016975408652797341
aF0.00034427642822265625
aF0.0023460388765670359
aF0.0020732879638671875
aF0.00013732923252973706
aF0.0021648407055181451
aF0.0021677017211914062
aF0.00016307830810546875
aF0.0003719329833984375
aF0.00414276123046875
aF0.000179290771484375
aF0.00018310546875
aF0.0041275024415199368
aF0.004222869873046875
aF0.00024414085783064365
aF8.392333984375e-05
aF0.00035858165938407183
aF0.000362396240234375
aF0.00418853759765625
aF0.008190155029296875
aF0.00026702880859375
aF0.00045776367232974735
aF0.00139617919921875
aF0.0010681157000362873
aF0.000629425048828125
aF0.00051116955000907183
aF0.00061798188835382462
aF0.0081291203387081623
aF0.00077056884765625
aF0.0014801025536144152
aF0.00074768112972378731
aF0.019073486328125
aF0.0005950927734375
aF0.01671600341796875
aF0.0033569410443305969
aF0.018890386447310448
aF0.016326963901519775
aF0.019073502160608768
aF0.022659316666249651
aF0.0062255933880805969
aF0.0015716552734375
aF0.0030823350243736058
aF0.0020904615812469274
aF0.0025329739437438548
aF0.035125792026519775
aF0.0019073635339736938
aF0.0014801025390625
aF0.002166748046875
aF0.00164794921875
aF0.0056762695603538305
aF0.013885527849197388
aF0.067657470703125
aF0.0029296875
aF0.0038452446460723877
aF0.0085449814796447754
aF0.00238037109375
aF0.06500244140625
aF0.066955655813217163
aF0.00286865234375
aF0.0025634765625
aF0.1297607421875
aF0.0093994140625
aF0.1414794921875
aF0.022216916084289551
aF0.021606683731079102
aF0.00885009765625
aF0.13726902054622769
aF0.13232421875
aF0.0062255859375
aF0.046265602111816406
aF0.0078125
aF0.0106201171875
aF0.086915016174316406
aF0.011719822883605957
aF0.045654296875
aF0.263671875
aF0.26855659484863281
aF0.020265579223632812
aF0.010009765625
aF0.57033157348632812
aF0.02099609375
aF0.52392578125
aF0.54736566543579102
aF0.035156264901161194
aF0.0915679931640625
aF0.044433597475290298
aF0.53955459594726562
aF0.558837890625
aF0.58642578125
aF0.0546875
aF0.37649917602539062
aF1.08203125
aF0.041015625
aF0.036621101200580597
aF0.0751953125
aF0.23242950439453125
aF1.0928955674171448
aF0.069824233651161194
aF1.06591796875
aF2.1171875
aF2.1123047173023224
aF2.1425857543945312
aF0.360595703125
aF0.05859375
aF2.162109375
aF0.138671875
aF2.14501953125
aF2.24365234375
aF2.1357421875
aF1.2734375
aF0.2383120059967041
aF0.78515625
aF0.228515625
aF0.15625
aF4.8028564453125
aF8.2890625
aF4.9630136489868164
aF4.72265625
aF0.16796875
aF10.4775390625
aF0.6171875
aF0.4453125
aF8.3046875
aF0.31640625
aF0.6171875
aF1.70556640625
aF8.5390625
aF0.35595893859863281
aF0.40625
aF1.57421875
aF0.78125
aF48.8125
aF33.25
aF1.78125
aF17.78125
aF3.453125
aF5.12890625
aF1.5
aF1.50439453125
aF37.546875
aF67.722686767578125
aF2.921875
aF38.34765625
aF6.625
aF2.0859375
aF34.23443603515625
aF2.25
aF1.96875
aF1.8828201293945312
aF11.015625
aF74.9375
aF66.84375
aF81.4375
aF3.0625
aF5.34375
aF9.3125
aF4.34375
aF68.21875
aF67.53125
aF7.75
aF135.625
aF152.375
aF6
aF28.90625
aF6.0625
aF19.5
aF163.203125
aF137.1875
aF26.876953125
aF7.5
aF11.75
aF64.75
aF305.75048828125
aF12
aF47
aF308.5
aF7.75
aF19
aF270.5
aF45
aF45
aF137.5
aF17
aF604.501953125
aF51
aF53.515625
aF38.5
aF114.0078125
aF18.5
a.(lp1
F30.900000000000006
aF30.899999999999999
aF30.900000000000013
aF30.899999999999999
aF30.900000000000006
aF30.900000000000006
aF30.899999999999999
aF30.900000000000006
aF30.899999999999999
aF30.900000000000002
aF30.899999999999999
aF30.900000000000016
aF30.900000000000023
aF30.90000000000002
aF30.899999999999999
aF30.899999999999999
aF30.899999999999999
aF30.899999999999999
aF30.899999999999999
aF30.899999999999999
aF30.900000000000045
aF30.899999999999991
aF30.900000000000002
aF30.899999999999999
aF30.899999999999999
aF30.900000000000016
aF30.900000000000006
aF30.899999999999991
aF30.900000000000002
aF30.900000000000034
aF30.899999999999967
aF30.899999999999984
aF30.900000000000016
aF30.900000000000013
aF30.899999999999995
aF30.899999999999995
aF30.900000000000091
aF30.899999999999999
aF30.900000000000013
aF30.900000000000002
aF30.900000000000119
aF30.899999999999974
aF30.899999999999959
aF30.900000000000034
aF30.899999999999999
aF30.900000000000052
aF30.900000000000119
aF30.900000000000023
aF30.900000000000002
aF30.899999999999999
aF30.899999999999999
aF30.900000000000254
aF30.899999999999999
aF30.900000000000027
aF30.900000000000034
aF30.899999999999999
aF30.900000000000055
aF30.899999999999999
aF30.900000000000084
aF30.900000000000013
aF30.899999999999999
aF30.900000000000041
aF30.900000000000453
aF30.900000000000041
aF30.900000000000453
aF30.899999999999885
aF30.900000000000709
aF30.900000000000823
aF30.900000000000766
aF30.900000000000112
aF30.90000000000142
aF30.900000000000368
aF30.90000000000013
aF30.900000000000055
aF30.900000000000169
aF30.899999999999999
aF30.900000000001203
aF30.900000000000169
aF30.900000000000023
aF30.900000000000283
aF30.900000000000794
aF30.900000000001022
aF30.900000000002159
aF30.900000000002091
aF30.900000000000453
aF30.899999999999658
aF30.900000000000453
aF30.899999999999373
aF30.900000000000205
aF30.900000000000453
aF30.89999999999884
aF30.900000000003068
aF30.9000000000025
aF30.900000000001135
aF30.900000000001022
aF30.900000000006195
aF30.900000000006891
aF30.900000000004887
aF30.90000000000159
aF30.900000000001477
aF30.900000000013641
aF30.900000000003409
aF30.899999999999956
aF30.899999999998862
aF30.900000000001818
aF30.900000000002045
aF30.900000000005001
aF30.900000000007502
aF30.9000000000025
aF30.900000000000183
aF30.900000000000908
aF30.900000000019098
aF30.900000000004546
aF30.900000000007729
aF30.90000000000591
aF30.899999999998862
aF30.900000000007729
aF30.90000000000682
aF30.900000000004091
aF30.900000000010458
aF30.900000000022736
aF30.900000000002727
aF30.900000000006365
aF30.900000000006365
aF30.90000000001455
aF30.900000000008003
aF30.900000000024555
aF30.900000000010913
aF30.900000000043654
aF30.900000000010913
aF30.900000000096405
aF30.900000000012732
aF30.900000000070939
aF30.900000000016369
aF30.900000000018188
aF30.900000000110957
aF30.900000000007275
aF30.900000000007275
aF30.900000000020007
aF30.900000000094586
aF30.90000000013206
aF30.900000000018188
aF30.900000000050206
aF30.900000000061844
aF30.900000000025464
aF30.900000000207363
aF30.900000000003637
aF30.90000000003274
aF30.900000000040016
aF30.900000000053115
aF30.900000000080034
aF30.900000000058206
aF30.900000000058206
aF30.90000000005093
aF30.900000000013097
aF30.900000000080034
aF30.900000000240105
aF30.899999999985447
aF30.900000000109138
aF30.900000000094586
aF30.900000000029102
aF30.900000000101862
aF30.900000000960425
aF30.900000000349245
aF30.900000000094586
aF30.900000000298313
aF30.900000000029102
aF30.900000000669387
aF30.900000000683939
aF30.899999999963619
aF30.900000000104775
aF30.900000000523868
aF30.900000001658917
aF30.900000000174622
aF30.900000001129229
aF30.900000000552971
aF30.900000000436556
aF30.900000001658917
aF30.900000001658917
aF30.900000000611179
aF30.900000001955778
aF30.900000000698491
aF30.900000000640283
aF30.900000001688021
aF30.900000000058206
aF30.900000001693844
aF30.900000001105944
aF30.899999999639114
aF30.90000000145519
aF30.900000000523868
aF30.900000000209548
aF30.900000001746228
aF30.900000001746228
aF30.900000001746228
aF30.900000001979059
aF30.900000001746228
aF30.90000000076834
aF30.90000000221189
aF30.900000001746228
aF30.900000000186264
aF30.900000008172356
aF30.900000006752087
aF30.900000011641531
aF30.900000010943039
aF30.90000000395812
aF30.900000002793966
aF30.900000001164152
aF30.900000006053595
aF30.900000002561136
aF30.899999999068676
aF30.90000000046566
aF30.900000020489095
aF30.90000001192093
aF30.900000001396982
aF30.90000000083819
aF30.900000006519257
aF30.900000024680047
aF30.900000001862644
aF30.899999999534337
aF30.900000005587934
aF30.900000041909514
aF30.900000000931321
aF30.900000021420418
aF30.900000013969837
aF30.900000013969837
aF30.900000001862644
aF30.900000038184224
aF30.900000016763805
aF30.899999995157124
aF30.900000019557773
aF30.899999992549418
aF30.900000053271651
aF30.900000031664966
aF30.900000052154063
aF30.900000027939676
aF30.900000011175869
aF30.900000020489095
aF30.90000001862645
aF30.900000007078052
aF30.900000011175869
aF30.899999973177909
aF30.900000003725289
aF30.900000081956385
aF30.900000037252902
aF30.900000029802321
aF30.90000002235174
aF30.900000001862644
aF30.900000033527611
aF30.900000175088646
aF30.900000031664966
aF30.900000067055224
aF30.900000111758708
aF30.900000007450579
aF30.900000037252902
aF30.900000029802321
aF30.900000074505805
aF30.900000104308127
aF30.900000074505805
aF30.900000447034845
aF30.900000178813933
aF30.900001057982493
aF30.899999907612802
aF30.900000208616255
aF30.900000008940701
aF30.900000551342991
aF30.900000068545342
aF30.900000217556954
aF30.900000149011611
aF30.900000134110449
aF30.900001028180171
aF30.900000923872
aF30.900000768900021
aF30.900000178813933
aF30.9000002682209
aF30.900000447034834
aF30.90000038743019
aF30.900000119209288
aF30.900000298023222
aF30.900000506639479
aF30.900000089406966
aF30.900000286102294
aF30.900002741814227
aF30.900001049041727
aF30.900002622604937
aF30.900000333786011
aF30.900000774860381
aF30.900000989437086
aF30.900000178813933
aF30.900001311302198
aF30.899999392032623
aF30.900000357627867
aF30.899999141693229
aF30.900003933906554
aF30.900001430511473
aF30.900006556513425
aF30.899999642372244
aF30.900000071525575
aF30.900002503395079
aF30.900001311302184
aF30.900005722048171
aF30.90000238418579
aF30.900006055839185
aF30.899999761581419
aF30.900001907348631
aF30.900004053115843
aF30.900001192092894
aF30.899999761581874
aF30.89999952316284
aF30.900003337860106
aF30.899998426437378
aF30.899998950958253
aF30.900003337860106
aF30.900002861022948
aF30.900026702920876
aF30.900004768371581
aF30.900005722045897
aF30.900013351440428
aF30.900005245208739
aF30.900011491777949
aF30.900031948139848
aF30.900040054437703
aF30.900024795539501
aF30.900012397766112
aF30.900054359596105
aF30.900060081642003
aF30.900014305114745
aF30.900019073486327
aF30.899999046332958
aF30.900014305114745
aF30.90006198900155
aF30.900045776367186
aF30.900089645967824
aF30.900104904684127
aF30.900030517578124
aF30.900030517578124
aF30.900076294410979
aF30.900110626810061
aF30.900101089986862
aF30.900003814697264
aF30.900000000029102
aF30.900247958538287
aF30.900038146972655
aF30.900053405761717
aF30.900053405761717
aF30.900022888183592
aF30.900152589753297
aF30.900198366818987
aF30.900051879999229
aF30.900034332275389
aF30.900251772697121
aF30.900148773193358
aF30.900114440452306
aF30.900404367223665
aF30.900053405761717
aF30.900160217285155
aF30.900526441028731
aF30.90012969970703
aF30.900221252907066
aF30.900000763405114
aF30.900305183232057
aF30.899893190339178
aF30.900625640155702
aF30.900076293945311
aF30.900076293945311
aF30.900184629717842
aF30.90025329478085
aF30.901007123852786
aF30.900222778320312
aF30.900122070312499
aF30.900106811523436
aF30.900274658203124
aF30.900503540039061
aF30.900213623046874
aF30.901617595573409
aF30.899749755859375
aF30.901800701042159
aF30.900579837709664
aF30.900488281249999
aF30.900030517578124
aF30.900885009765624
aF30.900915527343749
aF30.900323516130449
aF30.901037597656249
aF30.903845870654951
aF30.900964313745497
aF30.902808094136095
aF30.900488281249999
aF30.902380848047351
aF30.902539539453603
aF30.900366210937499
aF30.900366210937499
aF30.899877929687499
aF30.901953124999999
aF30.89963390825724
aF30.904518509842909
aF30.901098632812499
aF30.907571042730467
aF30.900854492187499
aF30.900976562499999
aF30.900854492187499
aF30.914902601027652
aF30.904394531249999
aF30.903564453125
aF30.902393588915487
aF30.905859613418578
aF30.903662109374999
aF30.904882812499999
aF30.903662109374999
aF30.899462890624999
aF30.903417968749999
aF30.916632139799411
aF30.913672828674315
aF30.916143858549411
aF30.920053930711838
aF30.907812499999999
aF30.917120421049411
aF30.903906249999999
aF30.923475721624264
aF30.924452284124264
aF30.915138626098631
aF30.910742187499999
aF30.966574754901959
aF30.905859374999999
aF30.916601562499999
aF30.904882812499999
aF30.931177236519609
aF30.942114736519606
aF30.900976562499999
aF30.911816406250001
aF30.917578124999999
aF30.909765624999999
aF30.929296874999999
aF30.890264833089667
aF30.937109374999999
aF30.909765624999999
aF30.958729377349307
aF30.96885150098425
aF30.925390624999999
aF30.933203124999999
aF30.948437500000001
aF30.966406249999999
aF30.923437499999999
aF30.919531249999999
aF30.915624999999999
aF30.970312499999999
aF30.919531249999999
aF30.942968749999999
aF31.054327876984125
aF30.942968749999999
aF30.888402845330738
aF30.962499999999999
aF31.040624999999999
aF30.923437499999999
aF31.340776209677419
aF31.307222640562248
aF31.064062499999999
aF30.85205078125
aF31.251721585181457
aF30.993749999999999
aF30.978124999999999
aF31.411458333333336
aF31.589583333333334
aF30.993749999999999
aF31.040624999999999
aF31.573958333333334
aF31.165624999999999
aF31.103124999999999
aF30.978124999999999
aF31.306249999999999
aF31.040624999999999
aF32.213988095238093
aF32.074107142857144
aF31.293229166666666
aF32.877678571428575
aF31.243749999999999
aF31.270312499999999
aF32.236074561403512
aF33.133035714285711
aF31.399999999999999
aF31.118749999999999
aF31.149999999999999
aF33.754166666666663
aF31.462499999999999
aF31.262499999999999
aF32.212499999999999
aF35.025000000000006
aF31.212499999999999
aF31.782812499999999
aF31.816666666666666
aF31.524999999999999
aF41.274999999999999
aF39.774999999999999
aF32.649999999999999
aF18.274999999999999
aF44.424999999999997
aF44.024999999999999
aF31.774999999999999
aF41.691666666666663
aF31.524999999999999
aF32.024999999999999
aF37.399999999999999
aF31.899999999999999
aF39.399999999999999
aF32.649999999999999
aF33.899999999999999
aF35.600000000000001
aF13.25
aF31.649999999999999
aF14.5
aF33.316666666666663
aF32.5
aF38.333333333333336
aF54.999999999999993
aF33.399999999999999
aF48.299999999999997
aF16.166666666666664
aF36.399999999999999
aF43.399999999999999
aF43.799999999999997
aF32.399999999999999
a.