(lp1
F1.1102230246251565e-16
aF2.7755575615628914e-16
aF3.3306690738754696e-16
aF2.2204460492503131e-16
aF2.2204460492503131e-16
aF2.2204460492503131e-16
aF1.1102230246251565e-16
aF2.2204460492503131e-16
aF1.1102230246251565e-16
aF2.2204460492503131e-16
aF0
aF0
aF5.5511151231257827e-16
aF2.2204460492503131e-16
aF4.4408920985006262e-16
aF4.4408920985006262e-16
aF0
aF2.2204460492503131e-16
aF5.5511151231257827e-16
aF2.2204460492503131e-16
aF8.8817841970012523e-16
aF0
aF6.6613381477509392e-16
aF4.4408920985006262e-16
aF0
aF1.3322676295501878e-15
aF0
aF1.5543122344752192e-15
aF0
aF1.3322676295501878e-15
aF8.8817841970012523e-16
aF3.1086244689504383e-15
aF8.8817841970012523e-16
aF8.8817841970012523e-16
aF0
aF8.8817841970012523e-16
aF1.7763568394002505e-15
aF8.8817841970012523e-16
aF0
aF8.8817841970012523e-16
aF0
aF3.5527136788005009e-15
aF0
aF3.5527136788005009e-15
aF3.5527136788005009e-15
aF5.3290705182007514e-15
aF1.7763568394002505e-15
aF5.3290705182007514e-15
aF1.7763568394002505e-15
aF5.3290705182007514e-15
aF3.5527136788005009e-15
aF0
aF0
aF3.5527136788005009e-15
aF0
aF0
aF3.5527136788005009e-15
aF0
aF3.5527136788005009e-15
aF3.5527136788005009e-15
aF0
aF1.7763568394002505e-14
aF7.1054273576010019e-15
aF0
aF7.1054273576010019e-15
aF7.1054273576010019e-15
aF2.1316282072803006e-14
aF2.1316282072803006e-14
aF7.1054273576010019e-15
aF1.4210854715202004e-14
aF0
aF2.1316282072803006e-14
aF0
aF2.8421709430404007e-14
aF1.4210854715202004e-14
aF0
aF2.1316282072803006e-14
aF1.4210854715202004e-14
aF2.8421709430404007e-14
aF1.4210854715202004e-14
aF5.6843418860808015e-14
aF5.6843418860808015e-14
aF5.6843418860808015e-14
aF1.4210854715202004e-13
aF1.4210854715202004e-14
aF2.8421709430404007e-14
aF2.8421709430404007e-14
aF5.6843418860808015e-14
aF5.6843418860808015e-14
aF2.8421709430404007e-14
aF1.1368683772161603e-13
aF5.6843418860808015e-14
aF5.6843418860808015e-14
aF0
aF2.8421709430404007e-14
aF5.6843418860808015e-14
aF5.6843418860808015e-14
aF1.4210854715202004e-13
aF5.6843418860808015e-14
aF1.9895196601282805e-13
aF4.5474735088646412e-13
aF3.4106051316484809e-13
aF3.4106051316484809e-13
aF0
aF2.2737367544323206e-13
aF3.979039320256561e-13
aF1.1368683772161603e-13
aF1.1368683772161603e-13
aF0
aF1.1368683772161603e-13
aF0
aF6.8212102632969618e-13
aF0
aF2.2737367544323206e-13
aF1.0118464426828729e-320
aF4.5474735088646412e-13
aF4.5474735088646412e-13
aF5.6843418860808015e-13
aF3.4106051316484809e-13
aF2.2737367544323206e-13
aF4.5474735088646412e-13
aF1.3642420526593924e-12
aF0
aF9.0949470177292824e-13
aF1.3642420526593924e-12
aF0
aF0
aF4.5474735088646412e-13
aF6.8212102632969618e-13
aF0
aF1.8189894035458565e-12
aF2.7284841053187847e-12
aF1.8189894035458565e-12
aF0
aF3.637978807091713e-12
aF2.7284841053187847e-12
aF4.0473857707314917e-320
aF2.2737367544323206e-12
aF9.0949470177292824e-13
aF0
aF1.8189894035458565e-12
aF3.637978807091713e-12
aF1.8189894035458565e-12
aF2.7284841053187847e-12
aF1.8189894035458565e-12
aF2.7284841053187847e-12
aF3.637978807091713e-12
aF4.5474735088646412e-12
aF0
aF1.8189894035458565e-12
aF7.2759576141834259e-12
aF1.0913936421275139e-11
aF3.637978807091713e-12
aF1.0913936421275139e-11
aF3.637978807091713e-12
aF3.637978807091713e-12
aF0
aF7.2759576141834259e-12
aF9.0949470177292824e-12
aF1.8189894035458565e-12
aF7.2759576141834259e-12
aF0
aF3.2379086165851934e-319
aF7.2759576141834259e-12
aF2.1827872842550278e-11
aF7.2759576141834259e-12
aF7.2759576141834259e-12
aF0
aF2.1827872842550278e-11
aF1.0913936421275139e-11
aF4.3655745685100555e-11
aF0
aF2.1827872842550278e-11
aF2.9103830456733704e-11
aF4.3655745685100555e-11
aF1.4551915228366852e-11
aF5.8207660913467407e-11
aF1.4551915228366852e-11
aF1.4551915228366852e-11
aF0
aF2.9103830456733704e-11
aF0
aF0
aF5.8207660913467407e-11
aF8.7311491370201111e-11
aF1.1641532182693481e-10
aF2.9103830456733704e-11
aF0
aF1.4551915228366852e-11
aF1.1641532182693481e-10
aF1.1641532182693481e-10
aF0
aF5.8207660913467407e-11
aF1.7462298274040222e-10
aF8.7311491370201111e-11
aF0
aF2.3283064365386963e-10
aF5.8207660913467407e-11
aF5.8207660913467407e-11
aF1.4551915228366852e-10
aF2.3283064365386963e-10
aF2.3283064365386963e-10
aF0
aF1.7462298274040222e-10
aF3.4924596548080444e-10
aF1.1641532182693481e-10
aF0
aF3.4924596548080444e-10
aF1.1641532182693481e-10
aF1.1641532182693481e-10
aF2.3283064365386963e-10
aF2.3283064365386963e-10
aF2.3283064365386963e-10
aF4.6566128730773926e-10
aF2.3283064365386963e-10
aF4.6566128730773926e-10
aF0
aF4.6566128730773926e-10
aF2.3283064365386963e-10
aF2.3283064365386963e-10
aF4.6566128730773926e-10
aF1.1641532182693481e-09
aF4.6566128730773926e-10
aF1.862645149230957e-09
aF4.6566128730773926e-10
aF9.3132257461547852e-10
aF0
aF9.3132257461547852e-10
aF4.6566128730773926e-10
aF0
aF0
aF1.862645149230957e-09
aF1.862645149230957e-09
aF4.1445230292290475e-317
aF5.1222741603851318e-09
aF2.7939677238464355e-09
aF1.3969838619232178e-09
aF9.3132257461547852e-10
aF0
aF0
aF0
aF3.7252902984619141e-09
aF1.862645149230957e-09
aF4.6566128730773926e-09
aF1.862645149230957e-09
aF1.862645149230957e-09
aF1.862645149230957e-09
aF3.7252902984619141e-09
aF1.862645149230957e-09
aF1.862645149230957e-09
aF3.7252902984619141e-09
aF3.7252902984619141e-09
aF7.4505805969238281e-09
aF3.7252902984619141e-09
aF7.4505805969238281e-09
aF3.7252902984619141e-09
aF1.1175870895385742e-08
aF9.3132257461547852e-09
aF3.7252902984619141e-09
aF1.1175870895385742e-08
aF0
aF7.4505805969238281e-09
aF1.4901161193847656e-08
aF3.315618423383238e-316
aF7.4505805969238281e-09
aF7.4505805969238281e-09
aF2.2351741790771484e-08
aF1.862645149230957e-08
aF7.4505805969238281e-09
aF7.4505805969238281e-09
aF1.4901161193847656e-08
aF0
aF1.4901161193847656e-08
aF7.4505805969238281e-09
aF4.4703483581542969e-08
aF2.9802322387695312e-08
aF0
aF0
aF4.4703483581542969e-08
aF2.9802322387695312e-08
aF2.9802322387695312e-08
aF2.9802322387695312e-08
aF5.9604644775390625e-08
aF5.9604644775390625e-08
aF5.9604644775390625e-08
aF2.9802322387695312e-08
aF0
aF2.9802322387695312e-08
aF5.9604644775390625e-08
aF1.3262473693532952e-315
aF1.1920928955078125e-07
aF5.9604644775390625e-08
aF1.1920928955078125e-07
aF5.9604644775390625e-08
aF1.7881393432617188e-07
aF5.9604644775390625e-08
aF0
aF1.1920928955078125e-07
aF1.1920928955078125e-07
aF5.9604644775390625e-08
aF3.5762786865234375e-07
aF0
aF5.9604644775390625e-08
aF1.7881393432617188e-07
aF1.1920928955078125e-07
aF1.1920928955078125e-07
aF1.1920928955078125e-07
aF1.1920928955078125e-07
aF2.384185791015625e-07
aF1.1920928955078125e-07
aF1.0609978954826362e-314
aF0
aF2.384185791015625e-07
aF3.5762786865234375e-07
aF1.1920928955078125e-07
aF0
aF2.384185791015625e-07
aF4.76837158203125e-07
aF2.384185791015625e-07
aF7.152557373046875e-07
aF1.9073486328125e-06
aF4.76837158203125e-07
aF4.76837158203125e-07
aF4.76837158203125e-07
aF4.76837158203125e-07
aF4.76837158203125e-07
aF2.384185791015625e-06
aF9.5367431640625e-07
aF4.76837158203125e-07
aF4.76837158203125e-07
aF1.9073486328125e-06
aF0
aF9.5367431640625e-07
aF1.9073486328125e-06
aF9.5367431640625e-07
aF2.86102294921875e-06
aF1.9073486328125e-06
aF9.5367431640625e-07
aF1.9073486328125e-06
aF1.9073486328125e-06
aF0
aF7.62939453125e-06
aF6.67572021484375e-06
aF5.7220458984375e-06
aF5.7220458984375e-06
aF1.9073486328125e-06
aF1.9073486328125e-06
aF0
aF4.76837158203125e-06
aF1.9073486328125e-06
aF0
aF5.7220458984375e-06
aF0
aF7.62939453125e-06
aF3.814697265625e-06
aF3.814697265625e-06
aF0
aF3.814697265625e-06
aF3.814697265625e-06
aF0
aF1.52587890625e-05
aF1.52587890625e-05
aF7.62939453125e-06
aF2.288818359375e-05
aF7.62939453125e-06
aF1.52587890625e-05
aF7.62939453125e-06
aF1.52587890625e-05
aF1.52587890625e-05
aF0
aF4.57763671875e-05
aF0
aF6.7903865310888714e-313
aF1.52587890625e-05
aF0
aF1.52587890625e-05
aF3.0517578125e-05
aF3.814697265625e-05
aF1.52587890625e-05
aF3.0517578125e-05
aF6.103515625e-05
aF0
aF1.52587890625e-05
aF6.103515625e-05
aF1.52587890625e-05
aF7.62939453125e-05
aF3.0517578125e-05
aF6.103515625e-05
aF0
aF1.52587890625e-05
aF3.0517578125e-05
aF0.0001220703125
aF0.0001220703125
aF0.0001220703125
aF0
aF0.00018310546875
aF0
aF0
aF0
aF0
aF0.00018310546875
aF0.0003662109375
aF0.000244140625
aF0
aF0.0001220703125
aF5.4323092248710971e-312
aF0.0003662109375
aF0.000244140625
aF0.0003662109375
aF0.0001220703125
aF0.000244140625
aF0
aF0.000244140625
aF0.000244140625
aF0.000244140625
aF0
aF0.00048828125
aF0.000244140625
aF0.000244140625
aF0.00048828125
aF0.00048828125
aF0.0009765625
aF0.00048828125
aF2.1729236899484389e-311
aF0.00048828125
aF0
aF0.00048828125
aF0.0009765625
aF0.00146484375
aF0.000244140625
aF0.001953125
aF0.001953125
aF0.0009765625
aF0.0009765625
aF0.0009765625
aF0
aF0.0009765625
aF0.001953125
aF0
aF0.00244140625
aF0.001953125
aF0.00390625
aF0.00390625
aF0.005859375
aF0
aF0.01171875
aF0.001953125
aF0.001953125
aF0.00390625
aF0.005859375
aF0
aF0.00390625
aF1.7383389519587511e-310
aF0.01171875
aF0.01171875
aF0.009765625
aF0.001953125
aF0.01171875
aF0
aF0
aF0.015625
aF0.015625
aF0
aF0.0234375
aF0.0078125
aF0.015625
aF0.0234375
aF0.0078125
aF0
aF0.0078125
aF0.0078125
aF0.03125
aF0.046875
aF0
aF0.03125
aF0.03125
aF0.015625
aF0
aF0.03125
aF0.046875
aF0.03125
aF0
aF0.03125
aF0.0625
aF0.03125
aF1.3906711615670009e-309
aF0.03125
aF0.03125
aF0.09375
aF0.09375
aF0.0625
aF0.0625
aF0
aF0
aF0.125
aF0.125
aF0
aF0.0625
aF0
aF0.0625
aF0.25
aF0.25
aF0.1875
aF0.25
aF0.125
aF0.25
aF0.25
aF0.375
aF0
aF0
aF0.25
aF0.5
aF0.25
aF0
aF0.5
aF0.25
aF0.25
aF0.25
aF0.5
aF0.25
a.(lp1
F1.1102230246251565e-16
aF2.7755575615628914e-16
aF3.3306690738754696e-16
aF2.2204460492503131e-16
aF2.2204460492503131e-16
aF2.2204460492503131e-16
aF1.1102230246251565e-16
aF2.2204460492503131e-16
aF1.1102230246251565e-16
aF2.2204460492503131e-16
aF0
aF0
aF5.5511151231257827e-16
aF2.2204460492503131e-16
aF4.4408920985006262e-16
aF4.4408920985006262e-16
aF0
aF2.2204460492503131e-16
aF5.5511151231257827e-16
aF2.2204460492503131e-16
aF8.8817841970012523e-16
aF0
aF6.6613381477509392e-16
aF4.4408920985006262e-16
aF0
aF1.3322676295501878e-15
aF0
aF1.5543122344752192e-15
aF0
aF1.3322676295501878e-15
aF8.8817841970012523e-16
aF3.1086244689504383e-15
aF8.8817841970012523e-16
aF8.8817841970012523e-16
aF0
aF8.8817841970012523e-16
aF1.7763568394002505e-15
aF8.8817841970012523e-16
aF0
aF8.8817841970012523e-16
aF0
aF3.5527136788005009e-15
aF0
aF3.5527136788005009e-15
aF3.5527136788005009e-15
aF5.3290705182007514e-15
aF1.7763568394002505e-15
aF5.3290705182007514e-15
aF1.7763568394002505e-15
aF5.3290705182007514e-15
aF3.5527136788005009e-15
aF0
aF0
aF3.5527136788005009e-15
aF0
aF0
aF3.5527136788005009e-15
aF0
aF3.5527136788005009e-15
aF3.5527136788005009e-15
aF0
aF1.7763568394002505e-14
aF7.1054273576010019e-15
aF0
aF7.1054273576010019e-15
aF7.1054273576010019e-15
aF2.1316282072803006e-14
aF2.1316282072803006e-14
aF7.1054273576010019e-15
aF1.4210854715202004e-14
aF0
aF2.1316282072803006e-14
aF0
aF2.8421709430404007e-14
aF1.4210854715202004e-14
aF0
aF2.1316282072803006e-14
aF1.4210854715202004e-14
aF2.8421709430404007e-14
aF1.4210854715202004e-14
aF5.6843418860808015e-14
aF5.6843418860808015e-14
aF5.6843418860808015e-14
aF1.4210854715202004e-13
aF1.4210854715202004e-14
aF2.8421709430404007e-14
aF2.8421709430404007e-14
aF5.6843418860808015e-14
aF5.6843418860808015e-14
aF2.8421709430404007e-14
aF1.1368683772161603e-13
aF5.6843418860808015e-14
aF5.6843418860808015e-14
aF0
aF2.8421709430404007e-14
aF5.6843418860808015e-14
aF5.6843418860808015e-14
aF1.4210854715202004e-13
aF5.6843418860808015e-14
aF1.9895196601282805e-13
aF4.5474735088646412e-13
aF3.4106051316484809e-13
aF3.4106051316484809e-13
aF0
aF2.2737367544323206e-13
aF3.979039320256561e-13
aF1.1368683772161603e-13
aF1.1368683772161603e-13
aF0
aF1.1368683772161603e-13
aF0
aF6.8212102632969618e-13
aF0
aF2.2737367544323206e-13
aF1.0118464426828729e-320
aF4.5474735088646412e-13
aF4.5474735088646412e-13
aF5.6843418860808015e-13
aF3.4106051316484809e-13
aF2.2737367544323206e-13
aF4.5474735088646412e-13
aF1.3642420526593924e-12
aF0
aF9.0949470177292824e-13
aF1.3642420526593924e-12
aF0
aF0
aF4.5474735088646412e-13
aF6.8212102632969618e-13
aF0
aF1.8189894035458565e-12
aF2.7284841053187847e-12
aF1.8189894035458565e-12
aF0
aF3.637978807091713e-12
aF2.7284841053187847e-12
aF4.0473857707314917e-320
aF2.2737367544323206e-12
aF9.0949470177292824e-13
aF0
aF1.8189894035458565e-12
aF3.637978807091713e-12
aF1.8189894035458565e-12
aF2.7284841053187847e-12
aF1.8189894035458565e-12
aF2.7284841053187847e-12
aF3.637978807091713e-12
aF4.5474735088646412e-12
aF0
aF1.8189894035458565e-12
aF7.2759576141834259e-12
aF1.0913936421275139e-11
aF3.637978807091713e-12
aF1.0913936421275139e-11
aF3.637978807091713e-12
aF3.637978807091713e-12
aF0
aF7.2759576141834259e-12
aF9.0949470177292824e-12
aF1.8189894035458565e-12
aF7.2759576141834259e-12
aF0
aF3.2379086165851934e-319
aF7.2759576141834259e-12
aF2.1827872842550278e-11
aF7.2759576141834259e-12
aF7.2759576141834259e-12
aF0
aF2.1827872842550278e-11
aF1.0913936421275139e-11
aF4.3655745685100555e-11
aF0
aF2.1827872842550278e-11
aF2.9103830456733704e-11
aF4.3655745685100555e-11
aF1.4551915228366852e-11
aF5.8207660913467407e-11
aF1.4551915228366852e-11
aF1.4551915228366852e-11
aF0
aF2.9103830456733704e-11
aF0
aF0
aF5.8207660913467407e-11
aF8.7311491370201111e-11
aF1.1641532182693481e-10
aF2.9103830456733704e-11
aF0
aF1.4551915228366852e-11
aF1.1641532182693481e-10
aF1.1641532182693481e-10
aF0
aF5.8207660913467407e-11
aF1.7462298274040222e-10
aF8.7311491370201111e-11
aF0
aF2.3283064365386963e-10
aF5.8207660913467407e-11
aF5.8207660913467407e-11
aF1.4551915228366852e-10
aF2.3283064365386963e-10
aF2.3283064365386963e-10
aF0
aF1.7462298274040222e-10
aF3.4924596548080444e-10
aF1.1641532182693481e-10
aF0
aF3.4924596548080444e-10
aF1.1641532182693481e-10
aF1.1641532182693481e-10
aF2.3283064365386963e-10
aF2.3283064365386963e-10
aF2.3283064365386963e-10
aF4.6566128730773926e-10
aF2.3283064365386963e-10
aF4.6566128730773926e-10
aF0
aF4.6566128730773926e-10
aF2.3283064365386963e-10
aF2.3283064365386963e-10
aF4.6566128730773926e-10
aF1.1641532182693481e-09
aF4.6566128730773926e-10
aF1.862645149230957e-09
aF4.6566128730773926e-10
aF9.3132257461547852e-10
aF0
aF9.3132257461547852e-10
aF4.6566128730773926e-10
aF0
aF0
aF1.862645149230957e-09
aF1.862645149230957e-09
aF4.1445230292290475e-317
aF5.1222741603851318e-09
aF2.7939677238464355e-09
aF1.3969838619232178e-09
aF9.3132257461547852e-10
aF0
aF0
aF0
aF3.7252902984619141e-09
aF1.862645149230957e-09
aF4.6566128730773926e-09
aF1.862645149230957e-09
aF1.862645149230957e-09
aF1.862645149230957e-09
aF3.7252902984619141e-09
aF1.862645149230957e-09
aF1.862645149230957e-09
aF3.7252902984619141e-09
aF3.7252902984619141e-09
aF7.4505805969238281e-09
aF3.7252902984619141e-09
aF7.4505805969238281e-09
aF3.7252902984619141e-09
aF1.1175870895385742e-08
aF9.3132257461547852e-09
aF3.7252902984619141e-09
aF1.1175870895385742e-08
aF0
aF7.4505805969238281e-09
aF1.4901161193847656e-08
aF3.315618423383238e-316
aF7.4505805969238281e-09
aF7.4505805969238281e-09
aF2.2351741790771484e-08
aF1.862645149230957e-08
aF7.4505805969238281e-09
aF7.4505805969238281e-09
aF1.4901161193847656e-08
aF0
aF1.4901161193847656e-08
aF7.4505805969238281e-09
aF4.4703483581542969e-08
aF2.9802322387695312e-08
aF0
aF0
aF4.4703483581542969e-08
aF2.9802322387695312e-08
aF2.9802322387695312e-08
aF2.9802322387695312e-08
aF5.9604644775390625e-08
aF5.9604644775390625e-08
aF5.9604644775390625e-08
aF2.9802322387695312e-08
aF0
aF2.9802322387695312e-08
aF5.9604644775390625e-08
aF1.3262473693532952e-315
aF1.1920928955078125e-07
aF5.9604644775390625e-08
aF1.1920928955078125e-07
aF5.9604644775390625e-08
aF1.7881393432617188e-07
aF5.9604644775390625e-08
aF0
aF1.1920928955078125e-07
aF1.1920928955078125e-07
aF5.9604644775390625e-08
aF3.5762786865234375e-07
aF0
aF5.9604644775390625e-08
aF1.7881393432617188e-07
aF1.1920928955078125e-07
aF1.1920928955078125e-07
aF1.1920928955078125e-07
aF1.1920928955078125e-07
aF2.384185791015625e-07
aF1.1920928955078125e-07
aF1.0609978954826362e-314
aF0
aF2.384185791015625e-07
aF3.5762786865234375e-07
aF1.1920928955078125e-07
aF0
aF2.384185791015625e-07
aF4.76837158203125e-07
aF2.384185791015625e-07
aF7.152557373046875e-07
aF1.9073486328125e-06
aF4.76837158203125e-07
aF4.76837158203125e-07
aF4.76837158203125e-07
aF4.76837158203125e-07
aF4.76837158203125e-07
aF2.384185791015625e-06
aF9.5367431640625e-07
aF4.76837158203125e-07
aF4.76837158203125e-07
aF1.9073486328125e-06
aF0
aF9.5367431640625e-07
aF1.9073486328125e-06
aF9.5367431640625e-07
aF2.86102294921875e-06
aF1.9073486328125e-06
aF9.5367431640625e-07
aF1.9073486328125e-06
aF1.9073486328125e-06
aF0
aF7.62939453125e-06
aF6.67572021484375e-06
aF5.7220458984375e-06
aF5.7220458984375e-06
aF1.9073486328125e-06
aF1.9073486328125e-06
aF0
aF4.76837158203125e-06
aF1.9073486328125e-06
aF0
aF5.7220458984375e-06
aF0
aF7.62939453125e-06
aF3.814697265625e-06
aF3.814697265625e-06
aF0
aF3.814697265625e-06
aF3.814697265625e-06
aF0
aF1.52587890625e-05
aF1.52587890625e-05
aF7.62939453125e-06
aF2.288818359375e-05
aF7.62939453125e-06
aF1.52587890625e-05
aF7.62939453125e-06
aF1.52587890625e-05
aF1.52587890625e-05
aF0
aF4.57763671875e-05
aF0
aF6.7903865310888714e-313
aF1.52587890625e-05
aF0
aF1.52587890625e-05
aF3.0517578125e-05
aF3.814697265625e-05
aF1.52587890625e-05
aF3.0517578125e-05
aF6.103515625e-05
aF0
aF1.52587890625e-05
aF6.103515625e-05
aF1.52587890625e-05
aF7.62939453125e-05
aF3.0517578125e-05
aF6.103515625e-05
aF0
aF1.52587890625e-05
aF3.0517578125e-05
aF0.0001220703125
aF0.0001220703125
aF0.0001220703125
aF0
aF0.00018310546875
aF0
aF0
aF0
aF0
aF0.00018310546875
aF0.0003662109375
aF0.000244140625
aF0
aF0.0001220703125
aF5.4323092248710971e-312
aF0.0003662109375
aF0.000244140625
aF0.0003662109375
aF0.0001220703125
aF0.000244140625
aF0
aF0.000244140625
aF0.000244140625
aF0.000244140625
aF0
aF0.00048828125
aF0.000244140625
aF0.000244140625
aF0.00048828125
aF0.00048828125
aF0.0009765625
aF0.00048828125
aF2.1729236899484389e-311
aF0.00048828125
aF0
aF0.00048828125
aF0.0009765625
aF0.00146484375
aF0.000244140625
aF0.001953125
aF0.001953125
aF0.0009765625
aF0.0009765625
aF0.0009765625
aF0
aF0.0009765625
aF0.001953125
aF0
aF0.00244140625
aF0.001953125
aF0.00390625
aF0.00390625
aF0.005859375
aF0
aF0.01171875
aF0.001953125
aF0.001953125
aF0.00390625
aF0.005859375
aF0
aF0.00390625
aF1.7383389519587511e-310
aF0.01171875
aF0.01171875
aF0.009765625
aF0.001953125
aF0.01171875
aF0
aF0
aF0.015625
aF0.015625
aF0
aF0.0234375
aF0.0078125
aF0.015625
aF0.0234375
aF0.0078125
aF0
aF0.0078125
aF0.0078125
aF0.03125
aF0.046875
aF0
aF0.03125
aF0.03125
aF0.015625
aF0
aF0.03125
aF0.046875
aF0.03125
aF0
aF0.03125
aF0.0625
aF0.03125
aF1.3906711615670009e-309
aF0.03125
aF0.03125
aF0.09375
aF0.09375
aF0.0625
aF0.0625
aF0
aF0
aF0.125
aF0.125
aF0
aF0.0625
aF0
aF0.0625
aF0.25
aF0.25
aF0.1875
aF0.25
aF0.125
aF0.25
aF0.25
aF0.375
aF0
aF0
aF0.25
aF0.5
aF0.25
aF0
aF0.5
aF0.25
aF0.25
aF0.25
aF0.5
aF0.25
a.(lp1
F0
aF0
aF0
aF0
aF0
aF0
aF0
aF0
aF0
aF0
aF0
aF0
aF0
aF0
aF0
aF0
aF0
aF0
aF0
aF0
aF0
aF0
aF0
aF0
aF0
aF0
aF0
aF0
aF0
aF0
aF0
aF0
aF0
aF0
aF0
aF0
aF0
aF0
aF0
aF0
aF0
aF0
aF0
aF0
aF0
aF0
aF0
aF0
aF0
aF0
aF0
aF0
aF0
aF0
aF0
aF0
aF0
aF0
aF0
aF0
aF0
aF0
aF0
aF0
aF0
aF0
aF0
aF0
aF0
aF0
aF0
aF0
aF0
aF0
aF0
aF0
aF0
aF0
aF0
aF0
aF0
aF0
aF0
aF0
aF0
aF0
aF0
aF0
aF0
aF0
aF0
aF0
aF0
aF0
aF0
aF0
aF0
aF0
aF0
aF0
aF0
aF0
aF0
aF0
aF0
aF0
aF0
aF0
aF0
aF0
aF0
aF0
aF0
aF0
aF0
aF0
aF0
aF0
aF0
aF0
aF0
aF0
aF0
aF0
aF0
aF0
aF0
aF0
aF0
aF0
aF0
aF0
aF0
aF0
aF0
aF0
aF0
aF0
aF0
aF0
aF0
aF0
aF0
aF0
aF0
aF0
aF0
aF0
aF0
aF0
aF0
aF0
aF0
aF0
aF0
aF0
aF0
aF0
aF0
aF0
aF0
aF0
aF0
aF0
aF0
aF0
aF0
aF0
aF0
aF0
aF0
aF0
aF0
aF0
aF0
aF0
aF0
aF0
aF0
aF0
aF0
aF0
aF0
aF0
aF0
aF0
aF0
aF0
aF0
aF0
aF0
aF0
aF0
aF0
aF0
aF0
aF0
aF0
aF0
aF0
aF0
aF0
aF0
aF0
aF0
aF0
aF0
aF0
aF0
aF0
aF0
aF0
aF0
aF0
aF0
aF0
aF0
aF0
aF0
aF0
aF0
aF0
aF0
aF0
aF0
aF0
aF0
aF0
aF0
aF0
aF0
aF0
aF0
aF0
aF0
aF0
aF0
aF0
aF0
aF0
aF0
aF0
aF0
aF0
aF0
aF0
aF0
aF0
aF0
aF0
aF0
aF0
aF0
aF0
aF0
aF0
aF0
aF0
aF0
aF0
aF0
aF0
aF0
aF0
aF0
aF0
aF0
aF0
aF0
aF0
aF0
aF0
aF0
aF0
aF0
aF0
aF0
aF0
aF0
aF0
aF0
aF0
aF0
aF0
aF0
aF0
aF0
aF0
aF0
aF0
aF0
aF0
aF0
aF0
aF0
aF0
aF0
aF0
aF0
aF0
aF0
aF0
aF0
aF0
aF0
aF0
aF0
aF0
aF0
aF0
aF0
aF0
aF0
aF0
aF0
aF0
aF0
aF0
aF0
aF0
aF0
aF0
aF0
aF0
aF0
aF0
aF0
aF0
aF0
aF0
aF0
aF0
aF0
aF0
aF0
aF0
aF0
aF0
aF0
aF0
aF0
aF0
aF0
aF0
aF0
aF0
aF0
aF0
aF0
aF0
aF0
aF0
aF0
aF0
aF0
aF0
aF0
aF0
aF0
aF0
aF0
aF0
aF0
aF0
aF0
aF0
aF0
aF0
aF0
aF0
aF0
aF0
aF0
aF0
aF0
aF0
aF0
aF0
aF0
aF0
aF0
aF0
aF0
aF0
aF0
aF0
aF0
aF0
aF0
aF0
aF0
aF0
aF0
aF0
aF0
aF0
aF0
aF0
aF0
aF0
aF0
aF0
aF0
aF0
aF0
aF0
aF0
aF0
aF0
aF0
aF0
aF0
aF0
aF0
aF0
aF0
aF0
aF0
aF0
aF0
aF0
aF0
aF0
aF0
aF0
aF0
aF0
aF0
aF0
aF0
aF0
aF0
aF0
aF0
aF0
aF0
aF0
aF0
aF0
aF0
aF0
aF0
aF0
aF0
aF0
aF0
aF0
aF0
aF0
aF0
aF0
aF0
aF0
aF0
aF0
aF0
aF0
aF0
aF0
aF0
aF0
aF0
aF0
aF0
aF0
aF0
aF0
aF0
aF0
aF0
aF0
aF0
aF0
aF0
aF0
aF0
aF0
aF0
aF0
aF0
aF0
aF0
aF0
aF0
aF0
aF0
aF0
aF0
aF0
aF0
aF0
aF0
aF0
aF0
aF0
aF0
aF0
aF0
aF0
aF0
aF0
aF0
aF0
aF0
aF0
aF0
aF0
aF0
aF0
aF0
aF0
aF0
aF0
aF0
aF0
aF0
aF0
aF0
aF0
aF0
a.