(lp1
F9.9475983006414051e-14
aF1.9123591599168321e-13
aF2.918221220227224e-13
aF4.8175352596047105e-13
aF3.5524361230443446e-13
aF2.6884050541298166e-13
aF2.2759572004815715e-14
aF8.3821838359199319e-15
aF1.3500311979441904e-13
aF6.414313524771847e-14
aF8.1598727774689905e-11
aF2.9444890969898552e-11
aF7.929656931082731e-12
aF5.1215920393588021e-11
aF5.3574922276311554e-11
aF3.2713387554395013e-11
aF2.8387603379087688e-10
aF1.3727685654885136e-10
aF4.1779912862693994e-11
aF3.1681679502071347e-10
aF6.484128789453429e-10
aF6.7615246734932457e-10
aF4.8180481826420873e-10
aF4.5724846131633967e-10
aF3.0530600270151234e-10
aF1.6081003195722587e-10
aF2.5949020709958859e-10
aF5.7849547374644317e-10
aF7.7096729000913911e-10
aF2.9575630833283704e-10
aF9.0267349151386644e-11
aF5.2386894822120667e-10
aF6.6654592956183478e-10
aF6.5870153775989031e-10
aF9.9214503279654309e-10
aF1.6890453480300494e-09
aF1.3574208423960954e-10
aF4.9067239160649478e-10
aF6.3926108850864694e-10
aF1.844000507844612e-10
aF1.163016349892132e-09
aF2.5986537366406992e-09
aF2.4404016585339038e-09
aF2.1279902284732088e-09
aF6.7416294768918306e-10
aF1.4370016288012266e-09
aF1.9781509763561189e-10
aF1.6304966266034171e-09
aF9.8634700407274067e-10
aF1.9751951185753569e-09
aF3.3383003028575331e-09
aF4.2850842874099541e-09
aF1.4983925211708993e-09
aF4.5220076572149992e-09
aF2.6534507924225181e-09
aF4.898993211099878e-09
aF1.1018528312046788e-09
aF2.2155290935188532e-09
aF4.0777194953989238e-09
aF4.0718077798373997e-09
aF7.9271558206528425e-09
aF2.5465851649641991e-10
aF1.266926119569689e-09
aF1.3687895261683629e-09
aF2.5702320272102952e-09
aF8.8102751760743558e-09
aF1.9808794604614377e-09
aF7.9053279478102922e-09
aF1.3742464943788946e-09
aF3.4897311707165958e-09
aF4.6504283091053367e-08
aF6.1663740780204535e-10
aF3.7960489862625584e-08
aF5.0404196372255683e-09
aF7.9908204497769475e-09
aF2.5484041543677449e-09
aF2.3046595742926002e-09
aF1.5523255569860339e-08
aF3.3141986932605505e-09
aF8.8311935542151332e-09
aF2.6713678380474448e-08
aF2.1711457520723343e-08
aF4.6507921069860458e-08
aF2.4003384169624803e-08
aF1.6800186131583211e-08
aF4.6660716180625672e-08
aF1.6494595911353827e-08
aF3.2054231269285083e-08
aF4.1218299884349108e-09
aF1.0008079698309302e-08
aF5.6606950238347054e-09
aF3.8213329389691353e-08
aF3.5288394428789616e-09
aF3.3411197364330292e-08
aF6.54981704428792e-08
aF7.176276994869113e-08
aF1.469743438065052e-09
aF4.4237822294235229e-09
aF6.3359038904309273e-08
aF3.8926373235881329e-09
aF1.181761035695672e-07
aF2.6921043172478676e-09
aF2.2453605197370052e-08
aF5.2983523346483707e-08
aF2.0772858988493681e-07
aF1.2590317055583e-07
aF3.3105607144534588e-08
aF3.3993273973464966e-08
aF4.7642970457673073e-08
aF1.9554863683879375e-07
aF1.737499033538371e-13
aF3.0009328355617981e-13
aF1.7241763572428686e-13
aF2.9626301412122302e-13
aF8.5764728652293343e-14
aF4.6573855883025317e-13
aF2.4946711363327267e-13
aF2.8532731732866523e-14
aF3.9052094891189881e-13
aF4.9338311214341957e-13
aF7.1595422923564911e-09
aF2.8277281671762466e-07
aF1.4383113011717796e-07
aF2.6586349125001796e-07
aF1.4857505448162556e-07
aF6.5920175991440733e-08
aF1.626904122531414e-07
aF1.0506482796268646e-07
aF4.5518390834331512e-08
aF2.5992630980908871e-07
aF2.0227162167429924e-07
aF2.489541657269001e-07
aF3.1612580642104149e-07
aF2.1536834537982941e-08
aF6.3457991927862167e-07
aF4.5169144868850708e-08
aF3.4354161493332924e-07
aF1.9074650481343269e-07
aF2.3865140974521637e-08
aF4.1036400955096752e-07
aF3.0500814318656921e-08
aF2.959277480840683e-07
aF1.3993121683597565e-07
aF3.3760443385322247e-08
aF1.3153767213225365e-06
aF1.1413358160794473e-06
aF3.561144694685936e-07
aF7.4726995080709457e-07
aF1.0231742635369301e-06
aF3.5529956265989426e-07
aF1.7485581339099499e-07
aF1.533655450637085e-06
aF6.6356734329531264e-08
aF1.8554274001658655e-06
aF1.0665971794665552e-06
aF6.6356733441352844e-08
aF2.6635825634002686e-06
aF3.5879202187755199e-07
aF4.7311186968101993e-07
aF6.7218206822872162e-07
aF3.5576522350311279e-07
aF3.3061951398849487e-07
aF4.2039901018420256e-06
aF2.7590431272983551e-06
aF6.2445178716785676e-07
aF1.0523945093154907e-07
aF2.2938475012779236e-06
aF2.4493783712387085e-07
aF2.6263296604156494e-07
aF2.879649401599238e-06
aF8.5206702351570129e-06
aF9.5367431640625e-07
aF5.9735029935836792e-06
aF3.2326206849120354e-06
aF9.3085691332817078e-06
aF4.0875747799873352e-06
aF5.1036477088928223e-06
aF1.1743977665901184e-06
aF4.7311186790466309e-07
aF1.2069940567016602e-06
aF8.0429017543792725e-06
aF2.3363158106803894e-05
aF8.4005296230316162e-07
aF1.1030584573745728e-05
aF1.3094395399648739e-06
aF8.5588544607162476e-06
aF7.9479068522125829e-06
aF8.9034438133239746e-07
aF1.7559155821800232e-05
aF1.3913959264755249e-06
aF8.8736414909362793e-06
aF8.2887709140777588e-06
aF7.0750713348388672e-05
aF4.110485315322876e-05
aF1.7922371625900269e-05
aF2.6039779186248779e-06
aF5.6054443120956421e-05
aF4.8615038397148425e-06
aF2.8617680072784424e-05
aF2.7269124984741211e-06
aF8.2477929026936181e-05
aF5.7369470596313477e-06
aF5.4314732551574707e-06
aF3.2253563411188679e-05
aF2.2143125534057617e-05
aF8.8214874267578125e-06
aF5.5059799706214108e-06
aF7.3753299147938378e-05
aF1.8551946823208709e-06
aF4.2483210563659668e-05
aF0.00013366341590881348
aF0.00017480552196502686
aF8.3431601524353027e-05
aF0.00010985136032104492
aF7.9795718193054199e-05
aF7.4207782745361328e-05
aF0.00016783177852630615
aF7.6591968536376953e-06
aF4.3511390686035156e-06
aF1.093745231628418e-05
aF3.1641356201816961e-14
aF1.2290168882600483e-13
aF6.5025762552295459e-13
aF1.7641443861293737e-12
aF6.8167693711984612e-13
aF7.9336537339713686e-13
aF1.248112724283601e-12
aF5.6621374255883024e-13
aF1.6557866189259585e-12
aF5.8109073108880693e-13
aF2.1070241928100586e-05
aF0.00013151764869689941
aF2.306699764176301e-05
aF0.00022029876708984375
aF0.00013691186904907227
aF3.7223100662231445e-05
aF0.00026443600654602051
aF0.00028240680694580078
aF0.00015443563461303711
aF0.00013953447353287629
aF0.00027239324117545038
aF0.00046980381011962891
aF0.0003821253776550293
aF0.00027203559920963016
aF0.00030702352523803711
aF0.00029033422470092773
aF0.00037759542465209961
aF0.00028616189956665039
aF7.6651573181152344e-05
aF0.00039744377136230469
aF0.0011203289031982422
aF0.00075829040724784136
aF6.0081489209551364e-05
aF3.0636787414550781e-05
aF0.00085318088713393081
aF0.0011761189671233296
aF0.00014150142669677734
aF0.00020730495452880859
aF0.00018680095672607422
aF0.00070106983184814453
aF0.0032906532287597656
aF9.441375732421875e-05
aF0.00030732247978448868
aF0.0018813610076904297
aF0.0016472339630126953
aF0.0040001869201660156
aF0.0017540454864501953
aF0.00029516220092773438
aF0.00014901161193847656
aF7.2240829467773438e-05
aF0.0042991640511900187
aF0.0059785842895507812
aF0.00208282470703125
aF0.0011014938354492188
aF0.00033664703369140625
aF0.0055413246154785156
aF0.0040884092741180211
aF0.0044445991516113281
aF0.0023531951010227203
aF0.00049877166748046875
aF0.0047817248851060867
aF0.0065975189208984375
aF0.0034275054931640625
aF0.0001811981201171875
aF0.0012598186731338501
aF0.012258529663085938
aF0.0007228851318359375
aF0.0042085647583007812
aF0.008083343505859375
aF0.00049591250717639923
aF0.013134002685546875
aF0.0091495532542467117
aF0.008724212646484375
aF0.008457183837890625
aF0.00171661376953125
aF0.0087985992431640625
aF0.022329330444335938
aF0.028188705444335938
aF0.00849151611328125
aF0.0025749211199581623
aF0.0087127685546875
aF0.019451141357421875
aF0.009708404541015625
aF0.0046539306640625
aF0.044399261474609375
aF0.00719451904296875
aF0.0006103515625
aF0.00853729248046875
aF0.016529083251953125
aF0.003078460693359375
aF3.6539859138429165e-08
aF0.0042269229888916016
aF0.0640869140625
aF0.02570343017578125
aF0.045837403275072575
aF0.1023406982421875
aF0.02970123291015625
aF0.06113433837890625
aF0.037050247192382812
aF0.048736573196947575
aF0.101165771484375
aF0.076416015625
aF0.2616119384765625
aF0.004913330078125
aF0.0112457275390625
aF0.067657470703125
aF0.0029754638671875
aF0.015899658203125
aF0.038727760314941406
aF0.081832886207848787
aF3.0380142845842784e-12
aF1.5336620862171912e-12
aF6.8745009684789693e-13
aF4.6007642140466649e-13
aF2.1054269438991469e-12
aF7.4584782794318016e-13
aF9.1660012913052924e-13
aF1.0307310560619953e-12
aF1.9984014443252834e-12
aF9.5701224722688494e-14
aF0.0955810546875
aF0.4593963623046875
aF0.163818359375
aF0.30278778076171875
aF0.006744384765625
aF0.007633209228515625
aF0.0322265625
aF0.093536376953125
aF0.040466427803039551
aF0.14202880859375
aF0.53424072265625
aF0.10943603515625
aF0.842041015625
aF0.30194091796875
aF0.1075439453125
aF0.09124755859375
aF0.060486376285552979
aF0.07470703125
aF0.5921630859375
aF0.2625737190246582
aF0.618408203125
aF0.056396484375
aF0.8055419921875
aF0.849609375
aF1.164794921875
aF0.562255859375
aF0.0621337890625
aF0.5238037109375
aF0.4119873046875
aF0.9034423828125
aF2.29833984375
aF2.8056640625
aF1.366455078125
aF0.05712890625
aF4.561767578125
aF2.3452224731445312
aF1.4423828125
aF0.93505859375
aF4.762939453125
aF2.13037109375
aF0.12451171875
aF0.3525390625
aF2.42919921875
aF0.34716796875
aF7.3984375
aF0.34716796875
aF1.065948486328125
aF2.6201171875
aF5.12451171875
aF4.8115234375
aF4.4766845703125
aF5.240234375
aF9.3427734375
aF0.796875
aF4.9306640625
aF0.8525390625
aF0.7637939453125
aF0.8134765625
aF5.310546875
aF5.216796875
aF12.2109375
aF10.087890625
aF0.65234375
aF2.009765625
aF26.462890625
aF10.771484375
aF8.43359375
aF13.37109375
aF0.7109375
aF13.111328125
aF29.92578125
aF20.8984375
aF16.0712890625
aF18.609375
aF14.77734375
aF34.73828125
aF63.375
aF0.875
aF7.40234375
aF8.8203125
aF27.4453125
aF72.671875
aF33.1953125
aF11.40625
aF35.1171875
aF2.2109375
aF9.1640625
aF34.1015625
aF47.609375
aF25.296875
aF100.1875
aF70.25
aF52
aF142.21875
aF69.1015625
aF203.75
aF71.15625
aF67.171875
aF7.50390625
aF101.46875
aF8.0691009429756377e-13
aF4.0953906932372774e-12
aF5.2118309668003349e-12
aF8.2875928342218685e-12
aF5.7971405453827174e-12
aF4.3045567110766569e-12
aF3.8555825199182436e-12
aF9.9475983006414026e-14
aF1.5947243525715749e-12
aF2.606803661819874e-12
aF18.15625
aF306.28125
aF198.21875
aF69.40625
aF462.56640625
aF61.125
aF157.5625
aF262.40625
aF295.40673828125
aF156.875
aF576.5625
aF284.9375
aF156.8125
aF38.3125
aF189.625
aF16.625
aF489.9375
aF33.75
aF38.75
aF24.875
aF3.6175507034386101e-12
aF1.1885603612427076e-11
aF4.0856207306205761e-13
aF1.893507572958697e-11
aF5.0395243533785106e-12
aF4.8885340220294893e-12
aF9.5479180117763462e-13
aF4.6327386371558532e-12
aF4.6886938775969611e-12
aF1.021582818339084e-11
aF1.596056620201125e-11
aF9.7557517619861756e-12
aF1.858069254012662e-11
aF1.2136069926782511e-11
aF1.7461587731304462e-12
aF9.0025764620804694e-12
aF8.737899293009832e-12
aF3.5369041029298439e-11
aF8.5318418996394094e-12
aF1.1254996934439987e-11
aF1.0992096122208751e-11
aF1.9234391857025912e-11
aF2.6908253403234994e-11
aF8.2280848801019602e-12
aF1.6139978242790883e-11
aF3.4788172342814505e-11
aF9.1375795818748884e-12
aF3.1104008257898386e-11
aF1.5354828519775765e-11
aF2.7107205369247822e-12
aF4.035172196381609e-11
aF6.3892002799548209e-11
aF2.2509993868879974e-11
aF4.7151615945040248e-11
aF9.2725827016693074e-11
aF5.135092351338244e-11
aF3.9236169868672732e-11
aF6.7970518102811184e-11
aF5.2892801249981858e-11
aF4.9197979024029337e-11
aF5.1130655265296809e-11
aF1.3139356269675773e-10
aF1.9393553429836174e-10
aF1.2747136679536197e-10
aF1.9088020053459331e-10
aF1.6612489162072797e-11
aF1.2875034371973015e-11
aF3.8326675166899804e-11
aF1.5600676306348762e-10
aF3.3168134905281477e-11
a.(lp1
F9.9475983006414051e-14
aF1.9123591599168321e-13
aF2.918221220227224e-13
aF4.8175352596047105e-13
aF3.5524361230443446e-13
aF2.6884050541298166e-13
aF2.2759572004815715e-14
aF8.3821838359199319e-15
aF1.3500311979441904e-13
aF6.414313524771847e-14
aF8.1598727774689905e-11
aF2.9444890969898552e-11
aF7.929656931082731e-12
aF5.1215920393588021e-11
aF5.3574922276311554e-11
aF3.2713387554395013e-11
aF2.8387603379087688e-10
aF1.3727685654885136e-10
aF4.1779912862693994e-11
aF3.1681679502071347e-10
aF6.484128789453429e-10
aF6.7615246734932457e-10
aF4.8180481826420873e-10
aF4.5724846131633967e-10
aF3.0530600270151234e-10
aF1.6081003195722587e-10
aF2.5949020709958859e-10
aF5.7849547374644317e-10
aF7.7096729000913911e-10
aF2.9575630833283704e-10
aF9.0267349151386644e-11
aF5.2386894822120667e-10
aF6.6654592956183478e-10
aF6.5870153775989031e-10
aF9.9214503279654309e-10
aF1.6890453480300494e-09
aF1.3574208423960954e-10
aF4.9067239160649478e-10
aF6.3926108850864694e-10
aF1.844000507844612e-10
aF1.163016349892132e-09
aF2.5986537366406992e-09
aF2.4404016585339038e-09
aF2.1279902284732088e-09
aF6.7416294768918306e-10
aF1.4370016288012266e-09
aF1.9781509763561189e-10
aF1.6304966266034171e-09
aF9.8634700407274067e-10
aF1.9751951185753569e-09
aF3.3383003028575331e-09
aF4.2850842874099541e-09
aF1.4983925211708993e-09
aF4.5220076572149992e-09
aF2.6534507924225181e-09
aF4.898993211099878e-09
aF1.1018528312046788e-09
aF2.2155290935188532e-09
aF4.0777194953989238e-09
aF4.0718077798373997e-09
aF7.9271558206528425e-09
aF2.5465851649641991e-10
aF1.266926119569689e-09
aF1.3687895261683629e-09
aF2.5702320272102952e-09
aF8.8102751760743558e-09
aF1.9808794604614377e-09
aF7.9053279478102922e-09
aF1.3742464943788946e-09
aF3.4897311707165958e-09
aF4.6504283091053367e-08
aF6.1663740780204535e-10
aF3.7960489862625584e-08
aF5.0404196372255683e-09
aF7.9908204497769475e-09
aF2.5484041543677449e-09
aF2.3046595742926002e-09
aF1.5523255569860339e-08
aF3.3141986932605505e-09
aF8.8311935542151332e-09
aF2.6713678380474448e-08
aF2.1711457520723343e-08
aF4.6507921069860458e-08
aF2.4003384169624803e-08
aF1.6800186131583211e-08
aF4.6660716180625672e-08
aF1.6494595911353827e-08
aF3.2054231269285083e-08
aF4.1218299884349108e-09
aF1.0008079698309302e-08
aF5.6606950238347054e-09
aF3.8213329389691353e-08
aF3.5288394428789616e-09
aF3.3411197364330292e-08
aF6.54981704428792e-08
aF7.176276994869113e-08
aF1.469743438065052e-09
aF4.4237822294235229e-09
aF6.3359038904309273e-08
aF3.8926373235881329e-09
aF1.181761035695672e-07
aF2.6921043172478676e-09
aF2.2453605197370052e-08
aF5.2983523346483707e-08
aF2.0772858988493681e-07
aF1.2590317055583e-07
aF3.3105607144534588e-08
aF3.3993273973464966e-08
aF4.7642970457673073e-08
aF1.9554863683879375e-07
aF1.737499033538371e-13
aF3.0009328355617981e-13
aF1.7241763572428686e-13
aF2.9626301412122302e-13
aF8.5764728652293343e-14
aF4.6573855883025317e-13
aF2.4946711363327267e-13
aF2.8532731732866523e-14
aF3.9052094891189881e-13
aF4.9338311214341957e-13
aF7.1595422923564911e-09
aF2.8277281671762466e-07
aF1.4383113011717796e-07
aF2.6586349125001796e-07
aF1.4857505448162556e-07
aF6.5920175991440733e-08
aF1.626904122531414e-07
aF1.0506482796268646e-07
aF4.5518390834331512e-08
aF2.5992630980908871e-07
aF2.0227162167429924e-07
aF2.489541657269001e-07
aF3.1612580642104149e-07
aF2.1536834537982941e-08
aF6.3457991927862167e-07
aF4.5169144868850708e-08
aF3.4354161493332924e-07
aF1.9074650481343269e-07
aF2.3865140974521637e-08
aF4.1036400955096752e-07
aF3.0500814318656921e-08
aF2.959277480840683e-07
aF1.3993121683597565e-07
aF3.3760443385322247e-08
aF1.3153767213225365e-06
aF1.1413358160794473e-06
aF3.561144694685936e-07
aF7.4726995080709457e-07
aF1.0231742635369301e-06
aF3.5529956265989426e-07
aF1.7485581339099499e-07
aF1.533655450637085e-06
aF6.6356734329531264e-08
aF1.8554274001658655e-06
aF1.0665971794665552e-06
aF6.6356733441352844e-08
aF2.6635825634002686e-06
aF3.5879202187755199e-07
aF4.7311186968101993e-07
aF6.7218206822872162e-07
aF3.5576522350311279e-07
aF3.3061951398849487e-07
aF4.2039901018420256e-06
aF2.7590431272983551e-06
aF6.2445178716785676e-07
aF1.0523945093154907e-07
aF2.2938475012779236e-06
aF2.4493783712387085e-07
aF2.6263296604156494e-07
aF2.879649401599238e-06
aF8.5206702351570129e-06
aF9.5367431640625e-07
aF5.9735029935836792e-06
aF3.2326206849120354e-06
aF9.3085691332817078e-06
aF4.0875747799873352e-06
aF5.1036477088928223e-06
aF1.1743977665901184e-06
aF4.7311186790466309e-07
aF1.2069940567016602e-06
aF8.0429017543792725e-06
aF2.3363158106803894e-05
aF8.4005296230316162e-07
aF1.1030584573745728e-05
aF1.3094395399648739e-06
aF8.5588544607162476e-06
aF7.9479068522125829e-06
aF8.9034438133239746e-07
aF1.7559155821800232e-05
aF1.3913959264755249e-06
aF8.8736414909362793e-06
aF8.2887709140777588e-06
aF7.0750713348388672e-05
aF4.110485315322876e-05
aF1.7922371625900269e-05
aF2.6039779186248779e-06
aF5.6054443120956421e-05
aF4.8615038397148425e-06
aF2.8617680072784424e-05
aF2.7269124984741211e-06
aF8.2477929026936181e-05
aF5.7369470596313477e-06
aF5.4314732551574707e-06
aF3.2253563411188679e-05
aF2.2143125534057617e-05
aF8.8214874267578125e-06
aF5.5059799706214108e-06
aF7.3753299147938378e-05
aF1.8551946823208709e-06
aF4.2483210563659668e-05
aF0.00013366341590881348
aF0.00017480552196502686
aF8.3431601524353027e-05
aF0.00010985136032104492
aF7.9795718193054199e-05
aF7.4207782745361328e-05
aF0.00016783177852630615
aF7.6591968536376953e-06
aF4.3511390686035156e-06
aF1.093745231628418e-05
aF3.1641356201816961e-14
aF1.2290168882600483e-13
aF6.5025762552295459e-13
aF1.7641443861293737e-12
aF6.8167693711984612e-13
aF7.9336537339713686e-13
aF1.248112724283601e-12
aF5.6621374255883024e-13
aF1.6557866189259585e-12
aF5.8109073108880693e-13
aF2.1070241928100586e-05
aF0.00013151764869689941
aF2.306699764176301e-05
aF0.00022029876708984375
aF0.00013691186904907227
aF3.7223100662231445e-05
aF0.00026443600654602051
aF0.00028240680694580078
aF0.00015443563461303711
aF0.00013953447353287629
aF0.00027239324117545038
aF0.00046980381011962891
aF0.0003821253776550293
aF0.00027203559920963016
aF0.00030702352523803711
aF0.00029033422470092773
aF0.00037759542465209961
aF0.00028616189956665039
aF7.6651573181152344e-05
aF0.00039744377136230469
aF0.0011203289031982422
aF0.00075829040724784136
aF6.0081489209551364e-05
aF3.0636787414550781e-05
aF0.00085318088713393081
aF0.0011761189671233296
aF0.00014150142669677734
aF0.00020730495452880859
aF0.00018680095672607422
aF0.00070106983184814453
aF0.0032906532287597656
aF9.441375732421875e-05
aF0.00030732247978448868
aF0.0018813610076904297
aF0.0016472339630126953
aF0.0040001869201660156
aF0.0017540454864501953
aF0.00029516220092773438
aF0.00014901161193847656
aF7.2240829467773438e-05
aF0.0042991640511900187
aF0.0059785842895507812
aF0.00208282470703125
aF0.0011014938354492188
aF0.00033664703369140625
aF0.0055413246154785156
aF0.0040884092741180211
aF0.0044445991516113281
aF0.0023531951010227203
aF0.00049877166748046875
aF0.0047817248851060867
aF0.0065975189208984375
aF0.0034275054931640625
aF0.0001811981201171875
aF0.0012598186731338501
aF0.012258529663085938
aF0.0007228851318359375
aF0.0042085647583007812
aF0.008083343505859375
aF0.00049591250717639923
aF0.013134002685546875
aF0.0091495532542467117
aF0.008724212646484375
aF0.008457183837890625
aF0.00171661376953125
aF0.0087985992431640625
aF0.022329330444335938
aF0.028188705444335938
aF0.00849151611328125
aF0.0025749211199581623
aF0.0087127685546875
aF0.019451141357421875
aF0.009708404541015625
aF0.0046539306640625
aF0.044399261474609375
aF0.00719451904296875
aF0.0006103515625
aF0.00853729248046875
aF0.016529083251953125
aF0.003078460693359375
aF3.6539859138429165e-08
aF0.0042269229888916016
aF0.0640869140625
aF0.02570343017578125
aF0.045837403275072575
aF0.1023406982421875
aF0.02970123291015625
aF0.06113433837890625
aF0.037050247192382812
aF0.048736573196947575
aF0.101165771484375
aF0.076416015625
aF0.2616119384765625
aF0.004913330078125
aF0.0112457275390625
aF0.067657470703125
aF0.0029754638671875
aF0.015899658203125
aF0.038727760314941406
aF0.081832886207848787
aF3.0380142845842784e-12
aF1.5336620862171912e-12
aF6.8745009684789693e-13
aF4.6007642140466649e-13
aF2.1054269438991469e-12
aF7.4584782794318016e-13
aF9.1660012913052924e-13
aF1.0307310560619953e-12
aF1.9984014443252834e-12
aF9.5701224722688494e-14
aF0.0955810546875
aF0.4593963623046875
aF0.163818359375
aF0.30278778076171875
aF0.006744384765625
aF0.007633209228515625
aF0.0322265625
aF0.093536376953125
aF0.040466427803039551
aF0.14202880859375
aF0.53424072265625
aF0.10943603515625
aF0.842041015625
aF0.30194091796875
aF0.1075439453125
aF0.09124755859375
aF0.060486376285552979
aF0.07470703125
aF0.5921630859375
aF0.2625737190246582
aF0.618408203125
aF0.056396484375
aF0.8055419921875
aF0.849609375
aF1.164794921875
aF0.562255859375
aF0.0621337890625
aF0.5238037109375
aF0.4119873046875
aF0.9034423828125
aF2.29833984375
aF2.8056640625
aF1.366455078125
aF0.05712890625
aF4.561767578125
aF2.3452224731445312
aF1.4423828125
aF0.93505859375
aF4.762939453125
aF2.13037109375
aF0.12451171875
aF0.3525390625
aF2.42919921875
aF0.34716796875
aF7.3984375
aF0.34716796875
aF1.065948486328125
aF2.6201171875
aF5.12451171875
aF4.8115234375
aF4.4766845703125
aF5.240234375
aF9.3427734375
aF0.796875
aF4.9306640625
aF0.8525390625
aF0.7637939453125
aF0.8134765625
aF5.310546875
aF5.216796875
aF12.2109375
aF10.087890625
aF0.65234375
aF2.009765625
aF26.462890625
aF10.771484375
aF8.43359375
aF13.37109375
aF0.7109375
aF13.111328125
aF29.92578125
aF20.8984375
aF16.0712890625
aF18.609375
aF14.77734375
aF34.73828125
aF63.375
aF0.875
aF7.40234375
aF8.8203125
aF27.4453125
aF72.671875
aF33.1953125
aF11.40625
aF35.1171875
aF2.2109375
aF9.1640625
aF34.1015625
aF47.609375
aF25.296875
aF100.1875
aF70.25
aF52
aF142.21875
aF69.1015625
aF203.75
aF71.15625
aF67.171875
aF7.50390625
aF101.46875
aF8.0691009429756377e-13
aF4.0953906932372774e-12
aF5.2118309668003349e-12
aF8.2875928342218685e-12
aF5.7971405453827174e-12
aF4.3045567110766569e-12
aF3.8555825199182436e-12
aF9.9475983006414026e-14
aF1.5947243525715749e-12
aF2.606803661819874e-12
aF18.15625
aF306.28125
aF198.21875
aF69.40625
aF462.56640625
aF61.125
aF157.5625
aF262.40625
aF295.40673828125
aF156.875
aF576.5625
aF284.9375
aF156.8125
aF38.3125
aF189.625
aF16.625
aF489.9375
aF33.75
aF38.75
aF24.875
aF3.6175507034386101e-12
aF1.1885603612427076e-11
aF4.0856207306205761e-13
aF1.893507572958697e-11
aF5.0395243533785106e-12
aF4.8885340220294893e-12
aF9.5479180117763462e-13
aF4.6327386371558532e-12
aF4.6886938775969611e-12
aF1.021582818339084e-11
aF1.596056620201125e-11
aF9.7557517619861756e-12
aF1.858069254012662e-11
aF1.2136069926782511e-11
aF1.7461587731304462e-12
aF9.0025764620804694e-12
aF8.737899293009832e-12
aF3.5369041029298439e-11
aF8.5318418996394094e-12
aF1.1254996934439987e-11
aF1.0992096122208751e-11
aF1.9234391857025912e-11
aF2.6908253403234994e-11
aF8.2280848801019602e-12
aF1.6139978242790883e-11
aF3.4788172342814505e-11
aF9.1375795818748884e-12
aF3.1104008257898386e-11
aF1.5354828519775765e-11
aF2.7107205369247822e-12
aF4.035172196381609e-11
aF6.3892002799548209e-11
aF2.2509993868879974e-11
aF4.7151615945040248e-11
aF9.2725827016693074e-11
aF5.135092351338244e-11
aF3.9236169868672732e-11
aF6.7970518102811184e-11
aF5.2892801249981858e-11
aF4.9197979024029337e-11
aF5.1130655265296809e-11
aF1.3139356269675773e-10
aF1.9393553429836174e-10
aF1.2747136679536197e-10
aF1.9088020053459331e-10
aF1.6612489162072797e-11
aF1.2875034371973015e-11
aF3.8326675166899804e-11
aF1.5600676306348762e-10
aF3.3168134905281477e-11
a.(lp1
F0
aF0
aF0
aF0
aF0
aF0
aF0
aF0
aF0
aF0
aF0
aF0
aF0
aF0
aF0
aF0
aF0
aF0
aF0
aF0
aF0
aF0
aF0
aF0
aF0
aF0
aF0
aF0
aF0
aF0
aF0
aF0
aF0
aF0
aF0
aF0
aF0
aF0
aF0
aF0
aF0
aF0
aF0
aF0
aF0
aF0
aF0
aF0
aF0
aF0
aF0
aF0
aF0
aF0
aF0
aF0
aF0
aF0
aF0
aF0
aF0
aF1.1374234887284729e-13
aF0
aF0
aF0
aF0
aF0
aF0
aF0
aF1.2528866832894892e-13
aF0
aF0
aF0
aF0
aF0
aF0
aF1.4210854715202004e-13
aF0
aF1.1368683772161603e-13
aF0
aF3.2979174946490275e-13
aF2.620681449627682e-13
aF3.5899061501254437e-13
aF3.4100500201361683e-13
aF3.5477176751896877e-13
aF2.8993474288085963e-13
aF1.1368683772161603e-13
aF2.2737367544323206e-13
aF2.7300384175532599e-13
aF6.3599125965652092e-13
aF1.1655676424027206e-12
aF1.5916712392538557e-12
aF6.819544928760024e-13
aF4.5480286203769538e-13
aF9.1515683919851654e-13
aF3.4106051316484809e-13
aF1.5834000777203983e-12
aF5.6837867745684889e-13
aF4.6623815919133449e-13
aF2.4458213232492199e-13
aF2.8476776492425414e-12
aF9.0943919062169698e-13
aF1.5917822615563182e-12
aF6.8212102632969618e-13
aF9.0966123522662201e-13
aF2.2737367544323206e-13
aF5.6843418860808015e-13
aF2.0579093984451902e-12
aF2.4445445667709009e-12
aF1.1484146966722619e-12
aF2.2737367544323206e-12
aF3.0015101515346033e-12
aF4.661326880039951e-12
aF5.6276872051341051e-12
aF1.5063505998114124e-12
aF4.9341641883415832e-12
aF9.0949470177292824e-13
aF2.2737367544323206e-12
aF1.1654566201002581e-12
aF6.6051053515536751e-12
aF1.2503886814840826e-12
aF5.4569682106375694e-12
aF3.2399083416123631e-12
aF8.356149105992472e-12
aF6.6508465401682315e-12
aF1.3642420526593924e-12
aF7.366829368748995e-12
aF5.6388504976467857e-12
aF5.9345084402195883e-12
aF3.9220571235176749e-12
aF7.1623262876130411e-12
aF1.6371071165366402e-11
aF1.2005541005777332e-11
aF6.0253468880944183e-12
aF1.0368206293520643e-11
aF1.0186462784389505e-11
aF1.5461548708017858e-11
aF2.0895951635679921e-11
aF7.2759576141834259e-12
aF1.6234430466610661e-11
aF4.0745540275116419e-11
aF1.856259590482523e-11
aF2.023609058099396e-11
aF1.6461776386478277e-11
aF2.5011159809906758e-11
aF4.0017628100130764e-11
aF7.2759576141834259e-12
aF7.7306494539186588e-12
aF3.6788960766642731e-11
aF4.1327630206922096e-11
aF6.8393873897676372e-11
aF6.3500898983548382e-11
aF1.004992200570598e-10
aF7.6943307281121904e-11
aF1.0140843720307657e-10
aF2.9358654396460793e-11
aF2.1827872842550278e-11
aF1.6825596471647941e-11
aF8.4492046692495965e-11
aF3.5470182346841739e-11
aF1.0186351762087043e-10
aF6.1845473187105426e-11
aF1.600711230231866e-10
aF1.6189027896018615e-10
aF1.1823431123048067e-10
aF5.0531523410057844e-11
aF1.0692019491997939e-10
aF2.9103830456733704e-11
aF1.3329554127139431e-10
aF7.9126261098849682e-11
aF3.5506700912790732e-10
aF2.9103852661194196e-10
aF8.3673568074260629e-11
aF1.546140993013978e-10
aF2.3974264240500531e-10
aF2.5283947158172282e-10
aF3.4924607650310691e-10
aF9.4587226939779612e-11
aF1.4370021839127389e-10
aF1.3096723705530167e-10
aF2.4447216473433286e-10
aF4.1400199934926718e-10
aF1.7462292722925099e-10
aF1.1787050224754125e-09
aF5.5209986027371374e-10
aF2.2919272035792915e-10
aF5.4045815045533629e-10
aF2.3283081018732332e-10
aF6.2937027811571511e-10
aF6.8685043763672127e-10
aF8.6001816779202045e-10
aF8.6991333581032393e-10
aF1.0768418934326007e-09
aF1.1874366101505274e-09
aF5.064068275828504e-10
aF2.1318554699334413e-09
aF6.9849193096160889e-10
aF9.9098540484732212e-10
aF3.4924596548080444e-10
aF1.1248631193172542e-09
aF1.3969838619232178e-09
aF2.5145707072127264e-09
aF2.1682353690266609e-09
aF1.6298145055770874e-09
aF2.7648638933897018e-09
aF8.0326545415232431e-10
aF1.9674188833445313e-09
aF1.396983917434369e-09
aF1.862645371275562e-09
aF1.8044376548509433e-09
aF3.4051481079266921e-09
aF7.5378923103386342e-09
aF2.6542691933251206e-09
aF5.4482373446074208e-09
aF1.9371509674126486e-09
aF5.8207659803244383e-09
aF6.4843337366227161e-09
aF2.2700988311363801e-09
aF7.5495336093744925e-09
aF5.9604647884015094e-09
aF5.5879354476928711e-09
aF1.2107193525512372e-08
aF7.6368451007446936e-09
aF5.0524249783912012e-09
aF1.2153759443300771e-08
aF1.0803341943255163e-08
aF9.3132258016659364e-09
aF8.1956386677184412e-09
aF1.5238765499470119e-08
aF6.2701290826083778e-09
aF6.7055226926626688e-09
aF5.5879355032040223e-09
aF1.1734664628892943e-08
aF1.0523945243035016e-08
aF1.8882564845057459e-08
aF1.2293457973822086e-08
aF3.7252902984619141e-09
aF1.8924474570747307e-08
aF1.3038516211150153e-08
aF1.4901161332625534e-08
aF1.4901161193847656e-08
aF2.7008354497315423e-08
aF3.3713877134466941e-08
aF4.7031790184615119e-08
aF2.7418136766543812e-08
aF8.6147338151931763e-09
aF2.6077032089233398e-08
aF6.3329935295897144e-08
aF3.2782554532095887e-08
aF4.0978193338592206e-08
aF3.7997960944391451e-08
aF1.4901161193847656e-08
aF1.7229467630386353e-08
aF1.0272487960261145e-07
aF8.1956386566162109e-08
aF6.4447522096777732e-08
aF9.5367431784953993e-08
aF8.0373138144906875e-08
aF1.0058283800296053e-07
aF1.1473894096503123e-07
aF1.1324882470686859e-07
aF1.7583370187645997e-07
aF8.4340572331642605e-08
aF9.5367432251247669e-08
aF2.6542693398745598e-07
aF8.5309148145640282e-08
aF1.2665987009219393e-07
aF8.1956386566162109e-08
aF2.2351741796322599e-07
aF4.6566128730773926e-08
aF4.4703483587094084e-07
aF1.0281801221534437e-07
aF1.8477439899244886e-07
aF1.1920928955078125e-07
aF3.7550926240137448e-07
aF3.0323863081660463e-07
aF3.218650788561206e-07
aF3.7029385618891908e-07
aF1.4901161193847656e-07
aF2.2351741773007917e-07
aF5.9604644775390625e-07
aF2.5182962389291853e-07
aF1.9967555274780225e-07
aF3.2782554626464844e-07
aF4.1723251348324553e-07
aF4.4777989044453292e-07
aF3.075599666058082e-07
aF5.3644180308953793e-07
aF6.3180922887928759e-07
aF4.5076012614164718e-07
aF8.4936618816033871e-07
aF1.3530254365012872e-06
aF1.5646219253540039e-07
aF2.1457672119695737e-06
aF1.9878149034036063e-06
aF4.1723251356651225e-07
aF7.6591968550809852e-07
aF4.6193599706478849e-07
aF8.8512897522541323e-07
aF1.2218952180065301e-06
aF1.75833702070749e-06
aF7.8976154327392578e-07
aF2.8610229490799721e-06
aF1.5497207641046451e-06
aF9.5367431640625e-07
aF1.7285346983197947e-06
aF7.6293945311389777e-07
aF1.4841556546629775e-06
aF3.6358830926319682e-06
aF7.3015689855404631e-07
aF2.4604797072280693e-06
aF5.0544735132329599e-06
aF5.0783161899770054e-06
aF2.6285646162749199e-06
aF4.2915344239669029e-06
aF9.5367431640625e-07
aF3.1161307999238996e-06
aF4.5299530028741763e-06
aF2.0265579224187924e-06
aF2.384185791015625e-06
aF1.1444091796930511e-05
aF3.8146974928876531e-06
aF6.833076447942954e-06
aF4.7206896853557726e-06
aF5.8412551878217478e-06
aF4.6253189791567451e-06
aF1.173019481950921e-05
aF3.337860107421875e-06
aF1.6331672668512542e-05
aF5.006790160966279e-06
aF3.814697265625e-06
aF1.8811227710247014e-05
aF1.5258789062555511e-05
aF1.5258789062555511e-05
aF7.9345698468513692e-06
aF6.1988830568071585e-06
aF1.9073486328125e-06
aF4.0531158446710513e-06
aF1.792907598428606e-05
aF1.182556152358183e-05
aF2.3651123046863898e-05
aF1.1920928955022614e-05
aF3.1127927824864399e-05
aF2.3651123047108148e-05
aF2.8610229492131989e-05
aF5.087856319757056e-05
aF1.7547607421686263e-05
aF2.4604797363103614e-05
aF5.5313110351423722e-05
aF3.7088392302236928e-05
aF4.9209538847849732e-05
aF9.9182128906305511e-05
aF6.055831909157483e-05
aF5.9700012207164479e-05
aF4.7683715820423522e-05
aF6.3419342041071136e-05
aF9.9182128906388778e-05
aF5.4626457393069927e-05
aF4.4174192473461771e-05
aF2.288818359375e-05
aF9.3460083007868011e-05
aF9.460449218740008e-05
aF4.3869018554743011e-05
aF0.00011444091796875
aF9.1552734375055511e-05
aF0.00015640258789051398
aF3.1471252441350739e-05
aF0.00010681152343766653
aF0.00029544911813000896
aF0.00011825561523426398
aF0.00023803710937514433
aF0.00019073486328147204
aF0.00019073486328119449
aF6.103515625e-05
aF0.00020751953125014433
aF0.00015563815836688866
aF9.1552734375e-05
aF0.00013732910156263878
aF0.00023192942152672202
aF0.00030517578124977796
aF0.00062011671068629148
aF0.00042724609375
aF0.0006057739257812611
aF0.00070556380607885967
aF0.0010254025459289495
aF0.00057983398437516653
aF0.00042724609375005551
aF0.0010375976562498612
aF0.00066376477479953568
aF9.3132263012662975e-10
aF0.00096893310546869449
aF0.00043945312500023317
aF0.001220703125000111
aF0.00050781059283763752
aF0.0017669796943664551
aF0.00085449218749983347
aF0.0014574794779065869
aF0.0023345947265624722
aF0.00093994466587904446
aF0.000732421875
aF0.0022363204970952955
aF0.00083923339843733347
aF0.00097656250000005551
aF0.002777099609375
aF0.000244140625
aF0.0012207031250000555
aF0.0018615722656250278
aF0.0024599075317384813
aF0.000732421875
aF0.0013360519424077955
aF0.0059374694943381545
aF0.0078378677368167171
aF0.0015869140625001665
aF0.002691650390625089
aF0.0021057724952697754
aF0.0050427436828614277
aF0.0025940537452697199
aF0.0023803710937498335
aF0.0019111633300782915
aF0.0036926269531251388
aF0.002319335937499778
aF0.0028076171875000555
aF0.00439453125
aF0.014160156250000056
aF0.0061375733374806618
aF0.0087890624999998612
aF0.0099566683743167565
aF0.013427734375000222
aF0.0055783083437013214
aF0.011132507562451155
aF0.010937500000000122
aF0.012207031249999778
aF0.013671874999999833
aF0.0070800781250000555
aF0.029988098144531482
aF0.030767822265625345
aF0.015380859374999944
aF0.019001007080078368
aF0.015869140625000056
aF0.0084472656249998113
aF0.0078125
aF0.047265624999999811
aF0.03515625
aF0.023315524683851896
aF0.031738281249999833
aF0.0417968749999999
aF0.073013995664306441
aF0.012695312499999833
aF0.065548335280373904
aF0.021717042349726767
aF0.076660156249999889
aF0.039062499999999944
aF0.070578173524844579
aF0.069824218750000056
aF0.069335937500000222
aF0.068444293478260948
aF0.070978503493788841
aF0.015625
aF0.051465600775193854
aF0.015625000000000056
aF0.060546875000000056
aF0.15871913580246916
aF0.14257812499999994
aF0.12492283950617268
aF0.17331129807692269
aF0.25000000000000022
aF0.12812499999999999
aF0.2051986882716052
aF0.11093749999999981
aF0.09375
aF0.10156250000000017
aF0.27602539062499998
aF0.140625
aF0.103515625
aF0.09375
aF0.21874999999999989
aF0.50390625
aF0.259765625
aF0.16015624999999978
aF0.091796874999999944
aF0.15625000000000006
aF0.45952380952380978
aF0.39531250000000018
aF0.37500000000000011
aF1.12421875
aF0.3953124999999999
aF0.30078125000000006
aF0.84209558823529429
aF0.12500000000000006
aF0.3125
aF1.8000000000000003
aF0.70170454545454519
aF0.3125
aF1.2328124999999999
aF2.125
aF1.6708333333333329
aF0.6875
aF1.1562500000000004
aF0.9869318181818183
aF0.28125000000000017
aF5.65625
aF1.2375
aF2.7156250000000002
aF1.1000000000000001
aF2.7999999999999998
aF0.75
aF2.8200000000000003
aF0.98486328125
aF0.90625
aF1.6343749999999999
aF2.46875
aF3
aF3.5571428571428569
aF1.5
aF5.4749999999999996
aF7.5
aF2.8000000000000003
aF4.25
aF5.5
aF2.46875
a.